
;CodeVisionAVR C Compiler V3.12 Advanced
;(C) Copyright 1998-2014 Pavel Haiduc, HP InfoTech s.r.l.
;http://www.hpinfotech.com

;Build configuration    : Debug
;Chip type              : ATmega16
;Program type           : Application
;Clock frequency        : 8/000000 MHz
;Memory model           : Small
;Optimize for           : Size
;(s)printf features     : int, width
;(s)scanf features      : int, width
;External RAM size      : 0
;Data Stack size        : 256 byte(s)
;Heap size              : 0 byte(s)
;Promote 'char' to 'int': Yes
;'char' is unsigned     : Yes
;8 bit enums            : Yes
;Global 'const' stored in FLASH: Yes
;Enhanced function parameter passing: Yes
;Enhanced core instructions: On
;Automatic register allocation for global variables: On
;Smart register allocation: On

	#define _MODEL_SMALL_

	#pragma AVRPART ADMIN PART_NAME ATmega16
	#pragma AVRPART MEMORY PROG_FLASH 16384
	#pragma AVRPART MEMORY EEPROM 512
	#pragma AVRPART MEMORY INT_SRAM SIZE 1024
	#pragma AVRPART MEMORY INT_SRAM START_ADDR 0x60

	#define CALL_SUPPORTED 1

	.LISTMAC
	.EQU UDRE=0x5
	.EQU RXC=0x7
	.EQU USR=0xB
	.EQU UDR=0xC
	.EQU SPSR=0xE
	.EQU SPDR=0xF
	.EQU EERE=0x0
	.EQU EEWE=0x1
	.EQU EEMWE=0x2
	.EQU EECR=0x1C
	.EQU EEDR=0x1D
	.EQU EEARL=0x1E
	.EQU EEARH=0x1F
	.EQU WDTCR=0x21
	.EQU MCUCR=0x35
	.EQU GICR=0x3B
	.EQU SPL=0x3D
	.EQU SPH=0x3E
	.EQU SREG=0x3F

	.DEF R0X0=R0
	.DEF R0X1=R1
	.DEF R0X2=R2
	.DEF R0X3=R3
	.DEF R0X4=R4
	.DEF R0X5=R5
	.DEF R0X6=R6
	.DEF R0X7=R7
	.DEF R0X8=R8
	.DEF R0X9=R9
	.DEF R0XA=R10
	.DEF R0XB=R11
	.DEF R0XC=R12
	.DEF R0XD=R13
	.DEF R0XE=R14
	.DEF R0XF=R15
	.DEF R0X10=R16
	.DEF R0X11=R17
	.DEF R0X12=R18
	.DEF R0X13=R19
	.DEF R0X14=R20
	.DEF R0X15=R21
	.DEF R0X16=R22
	.DEF R0X17=R23
	.DEF R0X18=R24
	.DEF R0X19=R25
	.DEF R0X1A=R26
	.DEF R0X1B=R27
	.DEF R0X1C=R28
	.DEF R0X1D=R29
	.DEF R0X1E=R30
	.DEF R0X1F=R31

	.EQU __SRAM_START=0x0060
	.EQU __SRAM_END=0x045F
	.EQU __DSTACK_SIZE=0x0100
	.EQU __HEAP_SIZE=0x0000
	.EQU __CLEAR_SRAM_SIZE=__SRAM_END-__SRAM_START+1

	.MACRO __CPD1N
	CPI  R30,LOW(@0)
	LDI  R26,HIGH(@0)
	CPC  R31,R26
	LDI  R26,BYTE3(@0)
	CPC  R22,R26
	LDI  R26,BYTE4(@0)
	CPC  R23,R26
	.ENDM

	.MACRO __CPD2N
	CPI  R26,LOW(@0)
	LDI  R30,HIGH(@0)
	CPC  R27,R30
	LDI  R30,BYTE3(@0)
	CPC  R24,R30
	LDI  R30,BYTE4(@0)
	CPC  R25,R30
	.ENDM

	.MACRO __CPWRR
	CP   R@0,R@2
	CPC  R@1,R@3
	.ENDM

	.MACRO __CPWRN
	CPI  R@0,LOW(@2)
	LDI  R30,HIGH(@2)
	CPC  R@1,R30
	.ENDM

	.MACRO __ADDB1MN
	SUBI R30,LOW(-@0-(@1))
	.ENDM

	.MACRO __ADDB2MN
	SUBI R26,LOW(-@0-(@1))
	.ENDM

	.MACRO __ADDW1MN
	SUBI R30,LOW(-@0-(@1))
	SBCI R31,HIGH(-@0-(@1))
	.ENDM

	.MACRO __ADDW2MN
	SUBI R26,LOW(-@0-(@1))
	SBCI R27,HIGH(-@0-(@1))
	.ENDM

	.MACRO __ADDW1FN
	SUBI R30,LOW(-2*@0-(@1))
	SBCI R31,HIGH(-2*@0-(@1))
	.ENDM

	.MACRO __ADDD1FN
	SUBI R30,LOW(-2*@0-(@1))
	SBCI R31,HIGH(-2*@0-(@1))
	SBCI R22,BYTE3(-2*@0-(@1))
	.ENDM

	.MACRO __ADDD1N
	SUBI R30,LOW(-@0)
	SBCI R31,HIGH(-@0)
	SBCI R22,BYTE3(-@0)
	SBCI R23,BYTE4(-@0)
	.ENDM

	.MACRO __ADDD2N
	SUBI R26,LOW(-@0)
	SBCI R27,HIGH(-@0)
	SBCI R24,BYTE3(-@0)
	SBCI R25,BYTE4(-@0)
	.ENDM

	.MACRO __SUBD1N
	SUBI R30,LOW(@0)
	SBCI R31,HIGH(@0)
	SBCI R22,BYTE3(@0)
	SBCI R23,BYTE4(@0)
	.ENDM

	.MACRO __SUBD2N
	SUBI R26,LOW(@0)
	SBCI R27,HIGH(@0)
	SBCI R24,BYTE3(@0)
	SBCI R25,BYTE4(@0)
	.ENDM

	.MACRO __ANDBMNN
	LDS  R30,@0+(@1)
	ANDI R30,LOW(@2)
	STS  @0+(@1),R30
	.ENDM

	.MACRO __ANDWMNN
	LDS  R30,@0+(@1)
	ANDI R30,LOW(@2)
	STS  @0+(@1),R30
	LDS  R30,@0+(@1)+1
	ANDI R30,HIGH(@2)
	STS  @0+(@1)+1,R30
	.ENDM

	.MACRO __ANDD1N
	ANDI R30,LOW(@0)
	ANDI R31,HIGH(@0)
	ANDI R22,BYTE3(@0)
	ANDI R23,BYTE4(@0)
	.ENDM

	.MACRO __ANDD2N
	ANDI R26,LOW(@0)
	ANDI R27,HIGH(@0)
	ANDI R24,BYTE3(@0)
	ANDI R25,BYTE4(@0)
	.ENDM

	.MACRO __ORBMNN
	LDS  R30,@0+(@1)
	ORI  R30,LOW(@2)
	STS  @0+(@1),R30
	.ENDM

	.MACRO __ORWMNN
	LDS  R30,@0+(@1)
	ORI  R30,LOW(@2)
	STS  @0+(@1),R30
	LDS  R30,@0+(@1)+1
	ORI  R30,HIGH(@2)
	STS  @0+(@1)+1,R30
	.ENDM

	.MACRO __ORD1N
	ORI  R30,LOW(@0)
	ORI  R31,HIGH(@0)
	ORI  R22,BYTE3(@0)
	ORI  R23,BYTE4(@0)
	.ENDM

	.MACRO __ORD2N
	ORI  R26,LOW(@0)
	ORI  R27,HIGH(@0)
	ORI  R24,BYTE3(@0)
	ORI  R25,BYTE4(@0)
	.ENDM

	.MACRO __DELAY_USB
	LDI  R24,LOW(@0)
__DELAY_USB_LOOP:
	DEC  R24
	BRNE __DELAY_USB_LOOP
	.ENDM

	.MACRO __DELAY_USW
	LDI  R24,LOW(@0)
	LDI  R25,HIGH(@0)
__DELAY_USW_LOOP:
	SBIW R24,1
	BRNE __DELAY_USW_LOOP
	.ENDM

	.MACRO __GETD1S
	LDD  R30,Y+@0
	LDD  R31,Y+@0+1
	LDD  R22,Y+@0+2
	LDD  R23,Y+@0+3
	.ENDM

	.MACRO __GETD2S
	LDD  R26,Y+@0
	LDD  R27,Y+@0+1
	LDD  R24,Y+@0+2
	LDD  R25,Y+@0+3
	.ENDM

	.MACRO __PUTD1S
	STD  Y+@0,R30
	STD  Y+@0+1,R31
	STD  Y+@0+2,R22
	STD  Y+@0+3,R23
	.ENDM

	.MACRO __PUTD2S
	STD  Y+@0,R26
	STD  Y+@0+1,R27
	STD  Y+@0+2,R24
	STD  Y+@0+3,R25
	.ENDM

	.MACRO __PUTDZ2
	STD  Z+@0,R26
	STD  Z+@0+1,R27
	STD  Z+@0+2,R24
	STD  Z+@0+3,R25
	.ENDM

	.MACRO __CLRD1S
	STD  Y+@0,R30
	STD  Y+@0+1,R30
	STD  Y+@0+2,R30
	STD  Y+@0+3,R30
	.ENDM

	.MACRO __POINTB1MN
	LDI  R30,LOW(@0+(@1))
	.ENDM

	.MACRO __POINTW1MN
	LDI  R30,LOW(@0+(@1))
	LDI  R31,HIGH(@0+(@1))
	.ENDM

	.MACRO __POINTD1M
	LDI  R30,LOW(@0)
	LDI  R31,HIGH(@0)
	LDI  R22,BYTE3(@0)
	LDI  R23,BYTE4(@0)
	.ENDM

	.MACRO __POINTW1FN
	LDI  R30,LOW(2*@0+(@1))
	LDI  R31,HIGH(2*@0+(@1))
	.ENDM

	.MACRO __POINTD1FN
	LDI  R30,LOW(2*@0+(@1))
	LDI  R31,HIGH(2*@0+(@1))
	LDI  R22,BYTE3(2*@0+(@1))
	LDI  R23,BYTE4(2*@0+(@1))
	.ENDM

	.MACRO __POINTB2MN
	LDI  R26,LOW(@0+(@1))
	.ENDM

	.MACRO __POINTW2MN
	LDI  R26,LOW(@0+(@1))
	LDI  R27,HIGH(@0+(@1))
	.ENDM

	.MACRO __POINTW2FN
	LDI  R26,LOW(2*@0+(@1))
	LDI  R27,HIGH(2*@0+(@1))
	.ENDM

	.MACRO __POINTD2FN
	LDI  R26,LOW(2*@0+(@1))
	LDI  R27,HIGH(2*@0+(@1))
	LDI  R24,BYTE3(2*@0+(@1))
	LDI  R25,BYTE4(2*@0+(@1))
	.ENDM

	.MACRO __POINTBRM
	LDI  R@0,LOW(@1)
	.ENDM

	.MACRO __POINTWRM
	LDI  R@0,LOW(@2)
	LDI  R@1,HIGH(@2)
	.ENDM

	.MACRO __POINTBRMN
	LDI  R@0,LOW(@1+(@2))
	.ENDM

	.MACRO __POINTWRMN
	LDI  R@0,LOW(@2+(@3))
	LDI  R@1,HIGH(@2+(@3))
	.ENDM

	.MACRO __POINTWRFN
	LDI  R@0,LOW(@2*2+(@3))
	LDI  R@1,HIGH(@2*2+(@3))
	.ENDM

	.MACRO __GETD1N
	LDI  R30,LOW(@0)
	LDI  R31,HIGH(@0)
	LDI  R22,BYTE3(@0)
	LDI  R23,BYTE4(@0)
	.ENDM

	.MACRO __GETD2N
	LDI  R26,LOW(@0)
	LDI  R27,HIGH(@0)
	LDI  R24,BYTE3(@0)
	LDI  R25,BYTE4(@0)
	.ENDM

	.MACRO __GETB1MN
	LDS  R30,@0+(@1)
	.ENDM

	.MACRO __GETB1HMN
	LDS  R31,@0+(@1)
	.ENDM

	.MACRO __GETW1MN
	LDS  R30,@0+(@1)
	LDS  R31,@0+(@1)+1
	.ENDM

	.MACRO __GETD1MN
	LDS  R30,@0+(@1)
	LDS  R31,@0+(@1)+1
	LDS  R22,@0+(@1)+2
	LDS  R23,@0+(@1)+3
	.ENDM

	.MACRO __GETBRMN
	LDS  R@0,@1+(@2)
	.ENDM

	.MACRO __GETWRMN
	LDS  R@0,@2+(@3)
	LDS  R@1,@2+(@3)+1
	.ENDM

	.MACRO __GETWRZ
	LDD  R@0,Z+@2
	LDD  R@1,Z+@2+1
	.ENDM

	.MACRO __GETD2Z
	LDD  R26,Z+@0
	LDD  R27,Z+@0+1
	LDD  R24,Z+@0+2
	LDD  R25,Z+@0+3
	.ENDM

	.MACRO __GETB2MN
	LDS  R26,@0+(@1)
	.ENDM

	.MACRO __GETW2MN
	LDS  R26,@0+(@1)
	LDS  R27,@0+(@1)+1
	.ENDM

	.MACRO __GETD2MN
	LDS  R26,@0+(@1)
	LDS  R27,@0+(@1)+1
	LDS  R24,@0+(@1)+2
	LDS  R25,@0+(@1)+3
	.ENDM

	.MACRO __PUTB1MN
	STS  @0+(@1),R30
	.ENDM

	.MACRO __PUTW1MN
	STS  @0+(@1),R30
	STS  @0+(@1)+1,R31
	.ENDM

	.MACRO __PUTD1MN
	STS  @0+(@1),R30
	STS  @0+(@1)+1,R31
	STS  @0+(@1)+2,R22
	STS  @0+(@1)+3,R23
	.ENDM

	.MACRO __PUTB1EN
	LDI  R26,LOW(@0+(@1))
	LDI  R27,HIGH(@0+(@1))
	CALL __EEPROMWRB
	.ENDM

	.MACRO __PUTW1EN
	LDI  R26,LOW(@0+(@1))
	LDI  R27,HIGH(@0+(@1))
	CALL __EEPROMWRW
	.ENDM

	.MACRO __PUTD1EN
	LDI  R26,LOW(@0+(@1))
	LDI  R27,HIGH(@0+(@1))
	CALL __EEPROMWRD
	.ENDM

	.MACRO __PUTBR0MN
	STS  @0+(@1),R0
	.ENDM

	.MACRO __PUTBMRN
	STS  @0+(@1),R@2
	.ENDM

	.MACRO __PUTWMRN
	STS  @0+(@1),R@2
	STS  @0+(@1)+1,R@3
	.ENDM

	.MACRO __PUTBZR
	STD  Z+@1,R@0
	.ENDM

	.MACRO __PUTWZR
	STD  Z+@2,R@0
	STD  Z+@2+1,R@1
	.ENDM

	.MACRO __GETW1R
	MOV  R30,R@0
	MOV  R31,R@1
	.ENDM

	.MACRO __GETW2R
	MOV  R26,R@0
	MOV  R27,R@1
	.ENDM

	.MACRO __GETWRN
	LDI  R@0,LOW(@2)
	LDI  R@1,HIGH(@2)
	.ENDM

	.MACRO __PUTW1R
	MOV  R@0,R30
	MOV  R@1,R31
	.ENDM

	.MACRO __PUTW2R
	MOV  R@0,R26
	MOV  R@1,R27
	.ENDM

	.MACRO __ADDWRN
	SUBI R@0,LOW(-@2)
	SBCI R@1,HIGH(-@2)
	.ENDM

	.MACRO __ADDWRR
	ADD  R@0,R@2
	ADC  R@1,R@3
	.ENDM

	.MACRO __SUBWRN
	SUBI R@0,LOW(@2)
	SBCI R@1,HIGH(@2)
	.ENDM

	.MACRO __SUBWRR
	SUB  R@0,R@2
	SBC  R@1,R@3
	.ENDM

	.MACRO __ANDWRN
	ANDI R@0,LOW(@2)
	ANDI R@1,HIGH(@2)
	.ENDM

	.MACRO __ANDWRR
	AND  R@0,R@2
	AND  R@1,R@3
	.ENDM

	.MACRO __ORWRN
	ORI  R@0,LOW(@2)
	ORI  R@1,HIGH(@2)
	.ENDM

	.MACRO __ORWRR
	OR   R@0,R@2
	OR   R@1,R@3
	.ENDM

	.MACRO __EORWRR
	EOR  R@0,R@2
	EOR  R@1,R@3
	.ENDM

	.MACRO __GETWRS
	LDD  R@0,Y+@2
	LDD  R@1,Y+@2+1
	.ENDM

	.MACRO __PUTBSR
	STD  Y+@1,R@0
	.ENDM

	.MACRO __PUTWSR
	STD  Y+@2,R@0
	STD  Y+@2+1,R@1
	.ENDM

	.MACRO __MOVEWRR
	MOV  R@0,R@2
	MOV  R@1,R@3
	.ENDM

	.MACRO __INWR
	IN   R@0,@2
	IN   R@1,@2+1
	.ENDM

	.MACRO __OUTWR
	OUT  @2+1,R@1
	OUT  @2,R@0
	.ENDM

	.MACRO __CALL1MN
	LDS  R30,@0+(@1)
	LDS  R31,@0+(@1)+1
	ICALL
	.ENDM

	.MACRO __CALL1FN
	LDI  R30,LOW(2*@0+(@1))
	LDI  R31,HIGH(2*@0+(@1))
	CALL __GETW1PF
	ICALL
	.ENDM

	.MACRO __CALL2EN
	PUSH R26
	PUSH R27
	LDI  R26,LOW(@0+(@1))
	LDI  R27,HIGH(@0+(@1))
	CALL __EEPROMRDW
	POP  R27
	POP  R26
	ICALL
	.ENDM

	.MACRO __CALL2EX
	SUBI R26,LOW(-@0)
	SBCI R27,HIGH(-@0)
	CALL __EEPROMRDD
	ICALL
	.ENDM

	.MACRO __GETW1STACK
	IN   R30,SPL
	IN   R31,SPH
	ADIW R30,@0+1
	LD   R0,Z+
	LD   R31,Z
	MOV  R30,R0
	.ENDM

	.MACRO __GETD1STACK
	IN   R30,SPL
	IN   R31,SPH
	ADIW R30,@0+1
	LD   R0,Z+
	LD   R1,Z+
	LD   R22,Z
	MOVW R30,R0
	.ENDM

	.MACRO __NBST
	BST  R@0,@1
	IN   R30,SREG
	LDI  R31,0x40
	EOR  R30,R31
	OUT  SREG,R30
	.ENDM


	.MACRO __PUTB1SN
	LDD  R26,Y+@0
	LDD  R27,Y+@0+1
	SUBI R26,LOW(-@1)
	SBCI R27,HIGH(-@1)
	ST   X,R30
	.ENDM

	.MACRO __PUTW1SN
	LDD  R26,Y+@0
	LDD  R27,Y+@0+1
	SUBI R26,LOW(-@1)
	SBCI R27,HIGH(-@1)
	ST   X+,R30
	ST   X,R31
	.ENDM

	.MACRO __PUTD1SN
	LDD  R26,Y+@0
	LDD  R27,Y+@0+1
	SUBI R26,LOW(-@1)
	SBCI R27,HIGH(-@1)
	CALL __PUTDP1
	.ENDM

	.MACRO __PUTB1SNS
	LDD  R26,Y+@0
	LDD  R27,Y+@0+1
	ADIW R26,@1
	ST   X,R30
	.ENDM

	.MACRO __PUTW1SNS
	LDD  R26,Y+@0
	LDD  R27,Y+@0+1
	ADIW R26,@1
	ST   X+,R30
	ST   X,R31
	.ENDM

	.MACRO __PUTD1SNS
	LDD  R26,Y+@0
	LDD  R27,Y+@0+1
	ADIW R26,@1
	CALL __PUTDP1
	.ENDM

	.MACRO __PUTB1PMN
	LDS  R26,@0
	LDS  R27,@0+1
	SUBI R26,LOW(-@1)
	SBCI R27,HIGH(-@1)
	ST   X,R30
	.ENDM

	.MACRO __PUTW1PMN
	LDS  R26,@0
	LDS  R27,@0+1
	SUBI R26,LOW(-@1)
	SBCI R27,HIGH(-@1)
	ST   X+,R30
	ST   X,R31
	.ENDM

	.MACRO __PUTD1PMN
	LDS  R26,@0
	LDS  R27,@0+1
	SUBI R26,LOW(-@1)
	SBCI R27,HIGH(-@1)
	CALL __PUTDP1
	.ENDM

	.MACRO __PUTB1PMNS
	LDS  R26,@0
	LDS  R27,@0+1
	ADIW R26,@1
	ST   X,R30
	.ENDM

	.MACRO __PUTW1PMNS
	LDS  R26,@0
	LDS  R27,@0+1
	ADIW R26,@1
	ST   X+,R30
	ST   X,R31
	.ENDM

	.MACRO __PUTD1PMNS
	LDS  R26,@0
	LDS  R27,@0+1
	ADIW R26,@1
	CALL __PUTDP1
	.ENDM

	.MACRO __PUTB1RN
	MOVW R26,R@0
	SUBI R26,LOW(-@1)
	SBCI R27,HIGH(-@1)
	ST   X,R30
	.ENDM

	.MACRO __PUTW1RN
	MOVW R26,R@0
	SUBI R26,LOW(-@1)
	SBCI R27,HIGH(-@1)
	ST   X+,R30
	ST   X,R31
	.ENDM

	.MACRO __PUTD1RN
	MOVW R26,R@0
	SUBI R26,LOW(-@1)
	SBCI R27,HIGH(-@1)
	CALL __PUTDP1
	.ENDM

	.MACRO __PUTB1RNS
	MOVW R26,R@0
	ADIW R26,@1
	ST   X,R30
	.ENDM

	.MACRO __PUTW1RNS
	MOVW R26,R@0
	ADIW R26,@1
	ST   X+,R30
	ST   X,R31
	.ENDM

	.MACRO __PUTD1RNS
	MOVW R26,R@0
	ADIW R26,@1
	CALL __PUTDP1
	.ENDM

	.MACRO __PUTB1RON
	MOV  R26,R@0
	MOV  R27,R@1
	SUBI R26,LOW(-@2)
	SBCI R27,HIGH(-@2)
	ST   X,R30
	.ENDM

	.MACRO __PUTW1RON
	MOV  R26,R@0
	MOV  R27,R@1
	SUBI R26,LOW(-@2)
	SBCI R27,HIGH(-@2)
	ST   X+,R30
	ST   X,R31
	.ENDM

	.MACRO __PUTD1RON
	MOV  R26,R@0
	MOV  R27,R@1
	SUBI R26,LOW(-@2)
	SBCI R27,HIGH(-@2)
	CALL __PUTDP1
	.ENDM

	.MACRO __PUTB1RONS
	MOV  R26,R@0
	MOV  R27,R@1
	ADIW R26,@2
	ST   X,R30
	.ENDM

	.MACRO __PUTW1RONS
	MOV  R26,R@0
	MOV  R27,R@1
	ADIW R26,@2
	ST   X+,R30
	ST   X,R31
	.ENDM

	.MACRO __PUTD1RONS
	MOV  R26,R@0
	MOV  R27,R@1
	ADIW R26,@2
	CALL __PUTDP1
	.ENDM


	.MACRO __GETB1SX
	MOVW R30,R28
	SUBI R30,LOW(-@0)
	SBCI R31,HIGH(-@0)
	LD   R30,Z
	.ENDM

	.MACRO __GETB1HSX
	MOVW R30,R28
	SUBI R30,LOW(-@0)
	SBCI R31,HIGH(-@0)
	LD   R31,Z
	.ENDM

	.MACRO __GETW1SX
	MOVW R30,R28
	SUBI R30,LOW(-@0)
	SBCI R31,HIGH(-@0)
	LD   R0,Z+
	LD   R31,Z
	MOV  R30,R0
	.ENDM

	.MACRO __GETD1SX
	MOVW R30,R28
	SUBI R30,LOW(-@0)
	SBCI R31,HIGH(-@0)
	LD   R0,Z+
	LD   R1,Z+
	LD   R22,Z+
	LD   R23,Z
	MOVW R30,R0
	.ENDM

	.MACRO __GETB2SX
	MOVW R26,R28
	SUBI R26,LOW(-@0)
	SBCI R27,HIGH(-@0)
	LD   R26,X
	.ENDM

	.MACRO __GETW2SX
	MOVW R26,R28
	SUBI R26,LOW(-@0)
	SBCI R27,HIGH(-@0)
	LD   R0,X+
	LD   R27,X
	MOV  R26,R0
	.ENDM

	.MACRO __GETD2SX
	MOVW R26,R28
	SUBI R26,LOW(-@0)
	SBCI R27,HIGH(-@0)
	LD   R0,X+
	LD   R1,X+
	LD   R24,X+
	LD   R25,X
	MOVW R26,R0
	.ENDM

	.MACRO __GETBRSX
	MOVW R30,R28
	SUBI R30,LOW(-@1)
	SBCI R31,HIGH(-@1)
	LD   R@0,Z
	.ENDM

	.MACRO __GETWRSX
	MOVW R30,R28
	SUBI R30,LOW(-@2)
	SBCI R31,HIGH(-@2)
	LD   R@0,Z+
	LD   R@1,Z
	.ENDM

	.MACRO __GETBRSX2
	MOVW R26,R28
	SUBI R26,LOW(-@1)
	SBCI R27,HIGH(-@1)
	LD   R@0,X
	.ENDM

	.MACRO __GETWRSX2
	MOVW R26,R28
	SUBI R26,LOW(-@2)
	SBCI R27,HIGH(-@2)
	LD   R@0,X+
	LD   R@1,X
	.ENDM

	.MACRO __LSLW8SX
	MOVW R30,R28
	SUBI R30,LOW(-@0)
	SBCI R31,HIGH(-@0)
	LD   R31,Z
	CLR  R30
	.ENDM

	.MACRO __PUTB1SX
	MOVW R26,R28
	SUBI R26,LOW(-@0)
	SBCI R27,HIGH(-@0)
	ST   X,R30
	.ENDM

	.MACRO __PUTW1SX
	MOVW R26,R28
	SUBI R26,LOW(-@0)
	SBCI R27,HIGH(-@0)
	ST   X+,R30
	ST   X,R31
	.ENDM

	.MACRO __PUTD1SX
	MOVW R26,R28
	SUBI R26,LOW(-@0)
	SBCI R27,HIGH(-@0)
	ST   X+,R30
	ST   X+,R31
	ST   X+,R22
	ST   X,R23
	.ENDM

	.MACRO __CLRW1SX
	MOVW R26,R28
	SUBI R26,LOW(-@0)
	SBCI R27,HIGH(-@0)
	ST   X+,R30
	ST   X,R30
	.ENDM

	.MACRO __CLRD1SX
	MOVW R26,R28
	SUBI R26,LOW(-@0)
	SBCI R27,HIGH(-@0)
	ST   X+,R30
	ST   X+,R30
	ST   X+,R30
	ST   X,R30
	.ENDM

	.MACRO __PUTB2SX
	MOVW R30,R28
	SUBI R30,LOW(-@0)
	SBCI R31,HIGH(-@0)
	ST   Z,R26
	.ENDM

	.MACRO __PUTW2SX
	MOVW R30,R28
	SUBI R30,LOW(-@0)
	SBCI R31,HIGH(-@0)
	ST   Z+,R26
	ST   Z,R27
	.ENDM

	.MACRO __PUTD2SX
	MOVW R30,R28
	SUBI R30,LOW(-@0)
	SBCI R31,HIGH(-@0)
	ST   Z+,R26
	ST   Z+,R27
	ST   Z+,R24
	ST   Z,R25
	.ENDM

	.MACRO __PUTBSRX
	MOVW R30,R28
	SUBI R30,LOW(-@1)
	SBCI R31,HIGH(-@1)
	ST   Z,R@0
	.ENDM

	.MACRO __PUTWSRX
	MOVW R30,R28
	SUBI R30,LOW(-@2)
	SBCI R31,HIGH(-@2)
	ST   Z+,R@0
	ST   Z,R@1
	.ENDM

	.MACRO __PUTB1SNX
	MOVW R26,R28
	SUBI R26,LOW(-@0)
	SBCI R27,HIGH(-@0)
	LD   R0,X+
	LD   R27,X
	MOV  R26,R0
	SUBI R26,LOW(-@1)
	SBCI R27,HIGH(-@1)
	ST   X,R30
	.ENDM

	.MACRO __PUTW1SNX
	MOVW R26,R28
	SUBI R26,LOW(-@0)
	SBCI R27,HIGH(-@0)
	LD   R0,X+
	LD   R27,X
	MOV  R26,R0
	SUBI R26,LOW(-@1)
	SBCI R27,HIGH(-@1)
	ST   X+,R30
	ST   X,R31
	.ENDM

	.MACRO __PUTD1SNX
	MOVW R26,R28
	SUBI R26,LOW(-@0)
	SBCI R27,HIGH(-@0)
	LD   R0,X+
	LD   R27,X
	MOV  R26,R0
	SUBI R26,LOW(-@1)
	SBCI R27,HIGH(-@1)
	ST   X+,R30
	ST   X+,R31
	ST   X+,R22
	ST   X,R23
	.ENDM

	.MACRO __MULBRR
	MULS R@0,R@1
	MOVW R30,R0
	.ENDM

	.MACRO __MULBRRU
	MUL  R@0,R@1
	MOVW R30,R0
	.ENDM

	.MACRO __MULBRR0
	MULS R@0,R@1
	.ENDM

	.MACRO __MULBRRU0
	MUL  R@0,R@1
	.ENDM

	.MACRO __MULBNWRU
	LDI  R26,@2
	MUL  R26,R@0
	MOVW R30,R0
	MUL  R26,R@1
	ADD  R31,R0
	.ENDM

;NAME DEFINITIONS FOR GLOBAL VARIABLES ALLOCATED TO REGISTERS
	.DEF _tmpx=R4
	.DEF _tmpx_msb=R5
	.DEF _tmpy=R6
	.DEF _tmpy_msb=R7
	.DEF _second=R8
	.DEF _second_msb=R9
	.DEF _minute=R10
	.DEF _minute_msb=R11
	.DEF _hour=R12
	.DEF _hour_msb=R13

	.CSEG
	.ORG 0x00

;START OF CODE MARKER
__START_OF_CODE:

;INTERRUPT VECTORS
	JMP  __RESET
	JMP  0x00
	JMP  0x00
	JMP  0x00
	JMP  0x00
	JMP  0x00
	JMP  0x00
	JMP  0x00
	JMP  0x00
	JMP  0x00
	JMP  0x00
	JMP  0x00
	JMP  0x00
	JMP  0x00
	JMP  0x00
	JMP  0x00
	JMP  0x00
	JMP  0x00
	JMP  0x00
	JMP  0x00
	JMP  0x00

_font5x7:
	.DB  0x5,0x7,0x20,0x60,0x0,0x0,0x0,0x0
	.DB  0x0,0x0,0x0,0x5F,0x0,0x0,0x0,0x7
	.DB  0x0,0x7,0x0,0x14,0x7F,0x14,0x7F,0x14
	.DB  0x24,0x2A,0x7F,0x2A,0x12,0x23,0x13,0x8
	.DB  0x64,0x62,0x36,0x49,0x55,0x22,0x50,0x0
	.DB  0x5,0x3,0x0,0x0,0x0,0x1C,0x22,0x41
	.DB  0x0,0x0,0x41,0x22,0x1C,0x0,0x8,0x2A
	.DB  0x1C,0x2A,0x8,0x8,0x8,0x3E,0x8,0x8
	.DB  0x0,0x50,0x30,0x0,0x0,0x8,0x8,0x8
	.DB  0x8,0x8,0x0,0x30,0x30,0x0,0x0,0x20
	.DB  0x10,0x8,0x4,0x2,0x3E,0x51,0x49,0x45
	.DB  0x3E,0x0,0x42,0x7F,0x40,0x0,0x42,0x61
	.DB  0x51,0x49,0x46,0x21,0x41,0x45,0x4B,0x31
	.DB  0x18,0x14,0x12,0x7F,0x10,0x27,0x45,0x45
	.DB  0x45,0x39,0x3C,0x4A,0x49,0x49,0x30,0x1
	.DB  0x71,0x9,0x5,0x3,0x36,0x49,0x49,0x49
	.DB  0x36,0x6,0x49,0x49,0x29,0x1E,0x0,0x36
	.DB  0x36,0x0,0x0,0x0,0x56,0x36,0x0,0x0
	.DB  0x0,0x8,0x14,0x22,0x41,0x14,0x14,0x14
	.DB  0x14,0x14,0x41,0x22,0x14,0x8,0x0,0x2
	.DB  0x1,0x51,0x9,0x6,0x32,0x49,0x79,0x41
	.DB  0x3E,0x7E,0x11,0x11,0x11,0x7E,0x7F,0x49
	.DB  0x49,0x49,0x36,0x3E,0x41,0x41,0x41,0x22
	.DB  0x7F,0x41,0x41,0x22,0x1C,0x7F,0x49,0x49
	.DB  0x49,0x41,0x7F,0x9,0x9,0x1,0x1,0x3E
	.DB  0x41,0x41,0x51,0x32,0x7F,0x8,0x8,0x8
	.DB  0x7F,0x0,0x41,0x7F,0x41,0x0,0x20,0x40
	.DB  0x41,0x3F,0x1,0x7F,0x8,0x14,0x22,0x41
	.DB  0x7F,0x40,0x40,0x40,0x40,0x7F,0x2,0x4
	.DB  0x2,0x7F,0x7F,0x4,0x8,0x10,0x7F,0x3E
	.DB  0x41,0x41,0x41,0x3E,0x7F,0x9,0x9,0x9
	.DB  0x6,0x3E,0x41,0x51,0x21,0x5E,0x7F,0x9
	.DB  0x19,0x29,0x46,0x46,0x49,0x49,0x49,0x31
	.DB  0x1,0x1,0x7F,0x1,0x1,0x3F,0x40,0x40
	.DB  0x40,0x3F,0x1F,0x20,0x40,0x20,0x1F,0x7F
	.DB  0x20,0x18,0x20,0x7F,0x63,0x14,0x8,0x14
	.DB  0x63,0x3,0x4,0x78,0x4,0x3,0x61,0x51
	.DB  0x49,0x45,0x43,0x0,0x0,0x7F,0x41,0x41
	.DB  0x2,0x4,0x8,0x10,0x20,0x41,0x41,0x7F
	.DB  0x0,0x0,0x4,0x2,0x1,0x2,0x4,0x40
	.DB  0x40,0x40,0x40,0x40,0x0,0x1,0x2,0x4
	.DB  0x0,0x20,0x54,0x54,0x54,0x78,0x7F,0x48
	.DB  0x44,0x44,0x38,0x38,0x44,0x44,0x44,0x20
	.DB  0x38,0x44,0x44,0x48,0x7F,0x38,0x54,0x54
	.DB  0x54,0x18,0x8,0x7E,0x9,0x1,0x2,0x8
	.DB  0x14,0x54,0x54,0x3C,0x7F,0x8,0x4,0x4
	.DB  0x78,0x0,0x44,0x7D,0x40,0x0,0x20,0x40
	.DB  0x44,0x3D,0x0,0x0,0x7F,0x10,0x28,0x44
	.DB  0x0,0x41,0x7F,0x40,0x0,0x7C,0x4,0x18
	.DB  0x4,0x78,0x7C,0x8,0x4,0x4,0x78,0x38
	.DB  0x44,0x44,0x44,0x38,0x7C,0x14,0x14,0x14
	.DB  0x8,0x8,0x14,0x14,0x18,0x7C,0x7C,0x8
	.DB  0x4,0x4,0x8,0x48,0x54,0x54,0x54,0x20
	.DB  0x4,0x3F,0x44,0x40,0x20,0x3C,0x40,0x40
	.DB  0x20,0x7C,0x1C,0x20,0x40,0x20,0x1C,0x3C
	.DB  0x40,0x30,0x40,0x3C,0x44,0x28,0x10,0x28
	.DB  0x44,0xC,0x50,0x50,0x50,0x3C,0x44,0x64
	.DB  0x54,0x4C,0x44,0x0,0x8,0x36,0x41,0x0
	.DB  0x0,0x0,0x7F,0x0,0x0,0x0,0x41,0x36
	.DB  0x8,0x0,0x2,0x1,0x2,0x4,0x2,0x7F
	.DB  0x41,0x41,0x41,0x7F
__glcd_mask:
	.DB  0x0,0x1,0x3,0x7,0xF,0x1F,0x3F,0x7F
	.DB  0xFF

;GLOBAL REGISTER VARIABLES INITIALIZATION
__REG_VARS:
	.DB  0x0,0x0,0x28,0x0
	.DB  0x5,0x0

_0x20C0060:
	.DB  0x1
_0x20C0000:
	.DB  0x2D,0x4E,0x41,0x4E,0x0,0x49,0x4E,0x46
	.DB  0x0

__GLOBAL_INI_TBL:
	.DW  0x06
	.DW  0x08
	.DW  __REG_VARS*2

	.DW  0x01
	.DW  __seed_G106
	.DW  _0x20C0060*2

_0xFFFFFFFF:
	.DW  0

#define __GLOBAL_INI_TBL_PRESENT 1

__RESET:
	CLI
	CLR  R30
	OUT  EECR,R30

;INTERRUPT VECTORS ARE PLACED
;AT THE START OF FLASH
	LDI  R31,1
	OUT  GICR,R31
	OUT  GICR,R30
	OUT  MCUCR,R30

;CLEAR R2-R14
	LDI  R24,(14-2)+1
	LDI  R26,2
	CLR  R27
__CLEAR_REG:
	ST   X+,R30
	DEC  R24
	BRNE __CLEAR_REG

;CLEAR SRAM
	LDI  R24,LOW(__CLEAR_SRAM_SIZE)
	LDI  R25,HIGH(__CLEAR_SRAM_SIZE)
	LDI  R26,__SRAM_START
__CLEAR_SRAM:
	ST   X+,R30
	SBIW R24,1
	BRNE __CLEAR_SRAM

;GLOBAL VARIABLES INITIALIZATION
	LDI  R30,LOW(__GLOBAL_INI_TBL*2)
	LDI  R31,HIGH(__GLOBAL_INI_TBL*2)
__GLOBAL_INI_NEXT:
	LPM  R24,Z+
	LPM  R25,Z+
	SBIW R24,0
	BREQ __GLOBAL_INI_END
	LPM  R26,Z+
	LPM  R27,Z+
	LPM  R0,Z+
	LPM  R1,Z+
	MOVW R22,R30
	MOVW R30,R0
__GLOBAL_INI_LOOP:
	LPM  R0,Z+
	ST   X+,R0
	SBIW R24,1
	BRNE __GLOBAL_INI_LOOP
	MOVW R30,R22
	RJMP __GLOBAL_INI_NEXT
__GLOBAL_INI_END:

;HARDWARE STACK POINTER INITIALIZATION
	LDI  R30,LOW(__SRAM_END-__HEAP_SIZE)
	OUT  SPL,R30
	LDI  R30,HIGH(__SRAM_END-__HEAP_SIZE)
	OUT  SPH,R30

;DATA STACK POINTER INITIALIZATION
	LDI  R28,LOW(__SRAM_START+__DSTACK_SIZE)
	LDI  R29,HIGH(__SRAM_START+__DSTACK_SIZE)

	JMP  _main

	.ESEG
	.ORG 0

	.DSEG
	.ORG 0x160

	.CSEG
;#include <mega16.h>
	#ifndef __SLEEP_DEFINED__
	#define __SLEEP_DEFINED__
	.EQU __se_bit=0x40
	.EQU __sm_mask=0xB0
	.EQU __sm_powerdown=0x20
	.EQU __sm_powersave=0x30
	.EQU __sm_standby=0xA0
	.EQU __sm_ext_standby=0xB0
	.EQU __sm_adc_noise_red=0x10
	.SET power_ctrl_reg=mcucr
	#endif
;
;// Graphic Display functions
;#include <glcd.h>
;
;// Font used for displaying text
;// on the graphic display
;#include <font5x7.h>
;#include <delay.h>
;#include <math.h>
;// Declare your global variables here
;
;
;int tmpx;
;int tmpy;
;int second = 0;
;int minute = 40;
;int hour = 5;
;
;  void q3(void);
;
;// Timer1 overflow interrupt service routine
;
;
;
;void main(void)
; 0000 001B {

	.CSEG
_main:
; .FSTART _main
; 0000 001C // Declare your local variables here
; 0000 001D // Variable used to store graphic display
; 0000 001E // controller initialization data
; 0000 001F GLCDINIT_t glcd_init_data;
; 0000 0020 
; 0000 0021 // Input/Output Ports initialization
; 0000 0022 // Port A initialization
; 0000 0023 // Function: Bit7=Out Bit6=Out Bit5=Out Bit4=Out Bit3=Out Bit2=Out Bit1=Out Bit0=Out
; 0000 0024 DDRA=(1<<DDA7) | (1<<DDA6) | (1<<DDA5) | (1<<DDA4) | (1<<DDA3) | (1<<DDA2) | (1<<DDA1) | (1<<DDA0);
	SBIW R28,6
;	glcd_init_data -> Y+0
	LDI  R30,LOW(255)
	OUT  0x1A,R30
; 0000 0025 // State: Bit7=0 Bit6=0 Bit5=0 Bit4=0 Bit3=0 Bit2=0 Bit1=0 Bit0=0
; 0000 0026 PORTA=(0<<PORTA7) | (0<<PORTA6) | (0<<PORTA5) | (0<<PORTA4) | (0<<PORTA3) | (0<<PORTA2) | (0<<PORTA1) | (0<<PORTA0);
	LDI  R30,LOW(0)
	OUT  0x1B,R30
; 0000 0027 
; 0000 0028 // Port B initialization
; 0000 0029 // Function: Bit7=Out Bit6=Out Bit5=Out Bit4=Out Bit3=Out Bit2=Out Bit1=Out Bit0=Out
; 0000 002A DDRB=(1<<DDB7) | (1<<DDB6) | (1<<DDB5) | (1<<DDB4) | (1<<DDB3) | (1<<DDB2) | (1<<DDB1) | (1<<DDB0);
	LDI  R30,LOW(255)
	OUT  0x17,R30
; 0000 002B // State: Bit7=0 Bit6=0 Bit5=0 Bit4=0 Bit3=0 Bit2=0 Bit1=0 Bit0=0
; 0000 002C PORTB=(0<<PORTB7) | (0<<PORTB6) | (0<<PORTB5) | (0<<PORTB4) | (0<<PORTB3) | (0<<PORTB2) | (0<<PORTB1) | (0<<PORTB0);
	LDI  R30,LOW(0)
	OUT  0x18,R30
; 0000 002D 
; 0000 002E // Port C initialization
; 0000 002F // Function: Bit7=Out Bit6=Out Bit5=Out Bit4=Out Bit3=Out Bit2=Out Bit1=Out Bit0=Out
; 0000 0030 DDRC=(1<<DDC7) | (1<<DDC6) | (1<<DDC5) | (1<<DDC4) | (1<<DDC3) | (1<<DDC2) | (1<<DDC1) | (1<<DDC0);
	LDI  R30,LOW(255)
	OUT  0x14,R30
; 0000 0031 // State: Bit7=0 Bit6=0 Bit5=0 Bit4=0 Bit3=0 Bit2=0 Bit1=0 Bit0=0
; 0000 0032 PORTC=(0<<PORTC7) | (0<<PORTC6) | (0<<PORTC5) | (0<<PORTC4) | (0<<PORTC3) | (0<<PORTC2) | (0<<PORTC1) | (0<<PORTC0);
	LDI  R30,LOW(0)
	OUT  0x15,R30
; 0000 0033 
; 0000 0034 // Port D initialization
; 0000 0035 // Function: Bit7=Out Bit6=Out Bit5=Out Bit4=Out Bit3=Out Bit2=Out Bit1=Out Bit0=Out
; 0000 0036 DDRD=(1<<DDD7) | (1<<DDD6) | (1<<DDD5) | (1<<DDD4) | (1<<DDD3) | (1<<DDD2) | (1<<DDD1) | (1<<DDD0);
	LDI  R30,LOW(255)
	OUT  0x11,R30
; 0000 0037 // State: Bit7=0 Bit6=0 Bit5=0 Bit4=0 Bit3=0 Bit2=0 Bit1=0 Bit0=0
; 0000 0038 PORTD=(0<<PORTD7) | (0<<PORTD6) | (0<<PORTD5) | (0<<PORTD4) | (0<<PORTD3) | (0<<PORTD2) | (0<<PORTD1) | (0<<PORTD0);
	LDI  R30,LOW(0)
	OUT  0x12,R30
; 0000 0039 
; 0000 003A 
; 0000 003B // Graphic Display Controller initialization
; 0000 003C // The KS0108 connections are specified in the
; 0000 003D // Project|Configure|C Compiler|Libraries|Graphic Display menu:
; 0000 003E // DB0 - PORTC Bit 0
; 0000 003F // DB1 - PORTC Bit 1
; 0000 0040 // DB2 - PORTC Bit 2
; 0000 0041 // DB3 - PORTC Bit 3
; 0000 0042 // DB4 - PORTC Bit 4
; 0000 0043 // DB5 - PORTC Bit 5
; 0000 0044 // DB6 - PORTC Bit 6
; 0000 0045 // DB7 - PORTC Bit 7
; 0000 0046 // E - PORTD Bit 0
; 0000 0047 // RD /WR - PORTD Bit 1
; 0000 0048 // RS - PORTD Bit 2
; 0000 0049 // /RST - PORTD Bit 3
; 0000 004A // CS1 - PORTD Bit 4
; 0000 004B // CS2 - PORTD Bit 5
; 0000 004C 
; 0000 004D // Specify the current font for displaying text
; 0000 004E glcd_init_data.font=font5x7;
	LDI  R30,LOW(_font5x7*2)
	LDI  R31,HIGH(_font5x7*2)
	ST   Y,R30
	STD  Y+1,R31
; 0000 004F // No function is used for reading
; 0000 0050 // image data from external memory
; 0000 0051 glcd_init_data.readxmem=NULL;
	LDI  R30,LOW(0)
	STD  Y+2,R30
	STD  Y+2+1,R30
; 0000 0052 // No function is used for writing
; 0000 0053 // image data to external memory
; 0000 0054 glcd_init_data.writexmem=NULL;
	STD  Y+4,R30
	STD  Y+4+1,R30
; 0000 0055 
; 0000 0056 glcd_init(&glcd_init_data);
	MOVW R26,R28
	RCALL _glcd_init
; 0000 0057 
; 0000 0058 // Global enable interrupts
; 0000 0059 #asm("sei")
	sei
; 0000 005A 
; 0000 005B while (1)
_0x3:
; 0000 005C       {
; 0000 005D       // Place your code here
; 0000 005E        q3();
	RCALL _q3
; 0000 005F        delay_ms(400);
	LDI  R26,LOW(400)
	LDI  R27,HIGH(400)
	CALL _delay_ms
; 0000 0060       }
	RJMP _0x3
; 0000 0061 }
_0x6:
	RJMP _0x6
; .FEND
;void q3(){
; 0000 0062 void q3(){
_q3:
; .FSTART _q3
; 0000 0063 
; 0000 0064     second++;
	MOVW R30,R8
	ADIW R30,1
	MOVW R8,R30
; 0000 0065         if(second == 60)
	LDI  R30,LOW(60)
	LDI  R31,HIGH(60)
	CP   R30,R8
	CPC  R31,R9
	BRNE _0x7
; 0000 0066         {
; 0000 0067             minute++;
	MOVW R30,R10
	ADIW R30,1
	MOVW R10,R30
; 0000 0068             second = 0;
	CLR  R8
	CLR  R9
; 0000 0069         }
; 0000 006A         if(minute == 60){
_0x7:
	LDI  R30,LOW(60)
	LDI  R31,HIGH(60)
	CP   R30,R10
	CPC  R31,R11
	BRNE _0x8
; 0000 006B             hour++;
	MOVW R30,R12
	ADIW R30,1
	MOVW R12,R30
; 0000 006C             minute = 0;
	CLR  R10
	CLR  R11
; 0000 006D         }if(hour == 12){
_0x8:
	LDI  R30,LOW(12)
	LDI  R31,HIGH(12)
	CP   R30,R12
	CPC  R31,R13
	BRNE _0x9
; 0000 006E             hour = 0;
	CLR  R12
	CLR  R13
; 0000 006F         }
; 0000 0070 
; 0000 0071         glcd_clear();
_0x9:
	RCALL _glcd_clear
; 0000 0072 
; 0000 0073         glcd_circle(60, 31, 30);
	CALL SUBOPT_0x0
	LDI  R26,LOW(30)
	CALL _glcd_circle
; 0000 0074         glcd_setlinestyle(3,5);
	LDI  R30,LOW(3)
	__PUTB1MN _glcd_state,8
	LDI  R30,LOW(5)
	__PUTB1MN _glcd_state,9
; 0000 0075         glcd_circle(60, 31, 2);
	CALL SUBOPT_0x0
	LDI  R26,LOW(2)
	CALL _glcd_circle
; 0000 0076         glcd_setlinestyle(1,GLCD_LINE_SOLID);
	CALL SUBOPT_0x1
; 0000 0077 
; 0000 0078         tmpx = 25*cos(second*60/10);tmpy = 25*sin(second*60/10);
	CALL SUBOPT_0x2
	CALL _cos
	CALL SUBOPT_0x3
	MOVW R4,R30
	CALL SUBOPT_0x2
	CALL _sin
	CALL SUBOPT_0x3
	MOVW R6,R30
; 0000 0079 
; 0000 007A         glcd_line(60,31,tmpx+63,31-tmpy);tmpx = 20*cos(minute*60/10);
	CALL SUBOPT_0x0
	MOV  R30,R4
	SUBI R30,-LOW(63)
	CALL SUBOPT_0x4
	CALL SUBOPT_0x5
	CALL _cos
	CALL SUBOPT_0x6
	MOVW R4,R30
; 0000 007B         tmpy = 20*sin(minute*60/10);
	CALL SUBOPT_0x5
	CALL _sin
	CALL SUBOPT_0x6
	MOVW R6,R30
; 0000 007C 
; 0000 007D         glcd_line(60,31,tmpx+60,31-tmpy);
	CALL SUBOPT_0x0
	MOV  R30,R4
	SUBI R30,-LOW(60)
	CALL SUBOPT_0x4
; 0000 007E 
; 0000 007F 
; 0000 0080         tmpy = 15*sin(hour*60/10);
	CALL SUBOPT_0x7
	CALL _sin
	CALL SUBOPT_0x8
	MOVW R6,R30
; 0000 0081         tmpx = 15*cos(hour*60/10);
	CALL SUBOPT_0x7
	CALL _cos
	CALL SUBOPT_0x8
	MOVW R4,R30
; 0000 0082         glcd_line(60,31,tmpx+60,31-tmpy);
	CALL SUBOPT_0x0
	MOV  R30,R4
	SUBI R30,-LOW(60)
	CALL SUBOPT_0x4
; 0000 0083 
; 0000 0084 
; 0000 0085 }
	RET
; .FEND
	#ifndef __SLEEP_DEFINED__
	#define __SLEEP_DEFINED__
	.EQU __se_bit=0x40
	.EQU __sm_mask=0xB0
	.EQU __sm_powerdown=0x20
	.EQU __sm_powersave=0x30
	.EQU __sm_standby=0xA0
	.EQU __sm_ext_standby=0xB0
	.EQU __sm_adc_noise_red=0x10
	.SET power_ctrl_reg=mcucr
	#endif

	.CSEG
_ks0108_enable_G100:
; .FSTART _ks0108_enable_G100
	nop
	SBI  0x12,0
	nop
	RET
; .FEND
_ks0108_disable_G100:
; .FSTART _ks0108_disable_G100
	CBI  0x12,0
	SBI  0x12,5
	SBI  0x12,4
	RET
; .FEND
_ks0108_rdbus_G100:
; .FSTART _ks0108_rdbus_G100
	ST   -Y,R17
	RCALL _ks0108_enable_G100
	IN   R17,19
	CBI  0x12,0
	MOV  R30,R17
	LD   R17,Y+
	RET
; .FEND
_ks0108_busy_G100:
; .FSTART _ks0108_busy_G100
	ST   -Y,R26
	ST   -Y,R17
	LDI  R30,LOW(0)
	OUT  0x14,R30
	SBI  0x12,1
	CBI  0x12,2
	LDD  R26,Y+1
	LDI  R30,LOW(2)
	SUB  R30,R26
	MOV  R17,R30
	SBRS R17,0
	RJMP _0x2000003
	SBI  0x12,5
	RJMP _0x2000004
_0x2000003:
	CBI  0x12,5
_0x2000004:
	SBRS R17,1
	RJMP _0x2000005
	SBI  0x12,4
	RJMP _0x2000006
_0x2000005:
	CBI  0x12,4
_0x2000006:
_0x2000007:
	RCALL _ks0108_rdbus_G100
	ANDI R30,LOW(0x80)
	BRNE _0x2000007
	LDD  R17,Y+0
	RJMP _0x2100006
; .FEND
_ks0108_wrcmd_G100:
; .FSTART _ks0108_wrcmd_G100
	ST   -Y,R26
	LDD  R26,Y+1
	RCALL _ks0108_busy_G100
	CALL SUBOPT_0x9
	RJMP _0x2100006
; .FEND
_ks0108_setloc_G100:
; .FSTART _ks0108_setloc_G100
	__GETB1MN _ks0108_coord_G100,1
	ST   -Y,R30
	LDS  R30,_ks0108_coord_G100
	ANDI R30,LOW(0x3F)
	ORI  R30,0x40
	MOV  R26,R30
	RCALL _ks0108_wrcmd_G100
	__GETB1MN _ks0108_coord_G100,1
	ST   -Y,R30
	__GETB1MN _ks0108_coord_G100,2
	ORI  R30,LOW(0xB8)
	MOV  R26,R30
	RCALL _ks0108_wrcmd_G100
	RET
; .FEND
_ks0108_gotoxp_G100:
; .FSTART _ks0108_gotoxp_G100
	ST   -Y,R26
	LDD  R30,Y+1
	STS  _ks0108_coord_G100,R30
	SWAP R30
	ANDI R30,0xF
	LSR  R30
	LSR  R30
	__PUTB1MN _ks0108_coord_G100,1
	LD   R30,Y
	__PUTB1MN _ks0108_coord_G100,2
	RCALL _ks0108_setloc_G100
	RJMP _0x2100006
; .FEND
_ks0108_nextx_G100:
; .FSTART _ks0108_nextx_G100
	LDS  R26,_ks0108_coord_G100
	SUBI R26,-LOW(1)
	STS  _ks0108_coord_G100,R26
	CPI  R26,LOW(0x80)
	BRLO _0x200000A
	LDI  R30,LOW(0)
	STS  _ks0108_coord_G100,R30
_0x200000A:
	LDS  R30,_ks0108_coord_G100
	ANDI R30,LOW(0x3F)
	BRNE _0x200000B
	LDS  R30,_ks0108_coord_G100
	ST   -Y,R30
	__GETB2MN _ks0108_coord_G100,2
	RCALL _ks0108_gotoxp_G100
_0x200000B:
	RET
; .FEND
_ks0108_wrdata_G100:
; .FSTART _ks0108_wrdata_G100
	ST   -Y,R26
	__GETB2MN _ks0108_coord_G100,1
	RCALL _ks0108_busy_G100
	SBI  0x12,2
	CALL SUBOPT_0x9
	ADIW R28,1
	RET
; .FEND
_ks0108_rddata_G100:
; .FSTART _ks0108_rddata_G100
	__GETB2MN _ks0108_coord_G100,1
	RCALL _ks0108_busy_G100
	LDI  R30,LOW(0)
	OUT  0x14,R30
	SBI  0x12,1
	SBI  0x12,2
	RCALL _ks0108_rdbus_G100
	RET
; .FEND
_ks0108_rdbyte_G100:
; .FSTART _ks0108_rdbyte_G100
	ST   -Y,R26
	LDD  R30,Y+1
	ST   -Y,R30
	LDD  R30,Y+1
	LSR  R30
	LSR  R30
	LSR  R30
	MOV  R26,R30
	RCALL _ks0108_gotoxp_G100
	RCALL _ks0108_rddata_G100
	RCALL _ks0108_setloc_G100
	RCALL _ks0108_rddata_G100
	RJMP _0x2100006
; .FEND
_glcd_init:
; .FSTART _glcd_init
	ST   -Y,R27
	ST   -Y,R26
	ST   -Y,R17
	SBI  0x11,0
	SBI  0x11,1
	SBI  0x11,2
	SBI  0x11,3
	SBI  0x12,3
	SBI  0x11,5
	SBI  0x11,4
	RCALL _ks0108_disable_G100
	CBI  0x12,3
	LDI  R26,LOW(100)
	LDI  R27,0
	CALL _delay_ms
	SBI  0x12,3
	LDI  R17,LOW(0)
_0x200000C:
	CPI  R17,2
	BRSH _0x200000E
	ST   -Y,R17
	LDI  R26,LOW(63)
	RCALL _ks0108_wrcmd_G100
	ST   -Y,R17
	INC  R17
	LDI  R26,LOW(192)
	RCALL _ks0108_wrcmd_G100
	RJMP _0x200000C
_0x200000E:
	LDI  R30,LOW(1)
	STS  _glcd_state,R30
	LDI  R30,LOW(0)
	__PUTB1MN _glcd_state,1
	LDD  R30,Y+1
	LDD  R31,Y+1+1
	SBIW R30,0
	BREQ _0x200000F
	LDD  R26,Y+1
	LDD  R27,Y+1+1
	CALL __GETW1P
	__PUTW1MN _glcd_state,4
	ADIW R26,2
	CALL __GETW1P
	__PUTW1MN _glcd_state,25
	LDD  R26,Y+1
	LDD  R27,Y+1+1
	ADIW R26,4
	CALL __GETW1P
	RJMP _0x20000AC
_0x200000F:
	LDI  R30,LOW(0)
	LDI  R31,HIGH(0)
	__PUTW1MN _glcd_state,4
	__PUTW1MN _glcd_state,25
_0x20000AC:
	__PUTW1MN _glcd_state,27
	LDI  R30,LOW(1)
	__PUTB1MN _glcd_state,6
	__PUTB1MN _glcd_state,7
	CALL SUBOPT_0x1
	LDI  R30,LOW(1)
	__PUTB1MN _glcd_state,16
	__POINTW1MN _glcd_state,17
	ST   -Y,R31
	ST   -Y,R30
	LDI  R30,LOW(255)
	ST   -Y,R30
	LDI  R26,LOW(8)
	LDI  R27,0
	CALL _memset
	RCALL _glcd_clear
	LDI  R30,LOW(1)
	LDD  R17,Y+0
	RJMP _0x2100003
; .FEND
_glcd_clear:
; .FSTART _glcd_clear
	CALL __SAVELOCR4
	LDI  R16,0
	LDI  R19,0
	__GETB1MN _glcd_state,1
	CPI  R30,0
	BREQ _0x2000015
	LDI  R16,LOW(255)
_0x2000015:
_0x2000016:
	CPI  R19,8
	BRSH _0x2000018
	LDI  R30,LOW(0)
	ST   -Y,R30
	MOV  R26,R19
	SUBI R19,-1
	RCALL _ks0108_gotoxp_G100
	LDI  R17,LOW(0)
_0x2000019:
	MOV  R26,R17
	SUBI R17,-1
	CPI  R26,LOW(0x80)
	BRSH _0x200001B
	MOV  R26,R16
	RCALL _ks0108_wrdata_G100
	RCALL _ks0108_nextx_G100
	RJMP _0x2000019
_0x200001B:
	RJMP _0x2000016
_0x2000018:
	LDI  R30,LOW(0)
	ST   -Y,R30
	LDI  R26,LOW(0)
	RCALL _ks0108_gotoxp_G100
	LDI  R30,LOW(0)
	ST   -Y,R30
	LDI  R26,LOW(0)
	RCALL _glcd_moveto
	CALL __LOADLOCR4
	JMP  _0x2100002
; .FEND
_glcd_putpixel:
; .FSTART _glcd_putpixel
	ST   -Y,R26
	ST   -Y,R17
	ST   -Y,R16
	LDD  R26,Y+4
	CPI  R26,LOW(0x80)
	BRSH _0x200001D
	LDD  R26,Y+3
	CPI  R26,LOW(0x40)
	BRLO _0x200001C
_0x200001D:
	LDD  R17,Y+1
	LDD  R16,Y+0
	JMP  _0x2100001
_0x200001C:
	LDD  R30,Y+4
	ST   -Y,R30
	LDD  R26,Y+4
	RCALL _ks0108_rdbyte_G100
	MOV  R17,R30
	RCALL _ks0108_setloc_G100
	LDD  R30,Y+3
	ANDI R30,LOW(0x7)
	LDI  R26,LOW(1)
	CALL __LSLB12
	MOV  R16,R30
	LDD  R30,Y+2
	CPI  R30,0
	BREQ _0x200001F
	OR   R17,R16
	RJMP _0x2000020
_0x200001F:
	MOV  R30,R16
	COM  R30
	AND  R17,R30
_0x2000020:
	MOV  R26,R17
	RCALL _ks0108_wrdata_G100
	LDD  R17,Y+1
	LDD  R16,Y+0
	JMP  _0x2100001
; .FEND
_glcd_getpixel:
; .FSTART _glcd_getpixel
	ST   -Y,R26
	LDD  R26,Y+1
	CPI  R26,LOW(0x80)
	BRSH _0x2000022
	LD   R26,Y
	CPI  R26,LOW(0x40)
	BRLO _0x2000021
_0x2000022:
	LDI  R30,LOW(0)
	RJMP _0x2100006
_0x2000021:
	LDD  R30,Y+1
	ST   -Y,R30
	LDD  R26,Y+1
	RCALL _ks0108_rdbyte_G100
	MOV  R1,R30
	LD   R30,Y
	ANDI R30,LOW(0x7)
	LDI  R26,LOW(1)
	CALL __LSLB12
	AND  R30,R1
	BREQ _0x2000024
	LDI  R30,LOW(1)
	RJMP _0x2000025
_0x2000024:
	LDI  R30,LOW(0)
_0x2000025:
	RJMP _0x2100006
; .FEND

	.CSEG
_glcd_clipx:
; .FSTART _glcd_clipx
	CALL SUBOPT_0xA
	BRLT _0x2020003
	LDI  R30,LOW(0)
	LDI  R31,HIGH(0)
	RJMP _0x2100006
_0x2020003:
	LD   R26,Y
	LDD  R27,Y+1
	CPI  R26,LOW(0x80)
	LDI  R30,HIGH(0x80)
	CPC  R27,R30
	BRLT _0x2020004
	LDI  R30,LOW(127)
	LDI  R31,HIGH(127)
	RJMP _0x2100006
_0x2020004:
	LD   R30,Y
	LDD  R31,Y+1
	RJMP _0x2100006
; .FEND
_glcd_clipy:
; .FSTART _glcd_clipy
	CALL SUBOPT_0xA
	BRLT _0x2020005
	LDI  R30,LOW(0)
	LDI  R31,HIGH(0)
	RJMP _0x2100006
_0x2020005:
	LD   R26,Y
	LDD  R27,Y+1
	CPI  R26,LOW(0x40)
	LDI  R30,HIGH(0x40)
	CPC  R27,R30
	BRLT _0x2020006
	LDI  R30,LOW(63)
	LDI  R31,HIGH(63)
	RJMP _0x2100006
_0x2020006:
	LD   R30,Y
	LDD  R31,Y+1
	RJMP _0x2100006
; .FEND
_glcd_setpixel:
; .FSTART _glcd_setpixel
	ST   -Y,R26
	LDD  R30,Y+1
	ST   -Y,R30
	LDD  R30,Y+1
	ST   -Y,R30
	LDS  R26,_glcd_state
	RCALL _glcd_putpixel
	RJMP _0x2100006
; .FEND
_glcd_putpixelm_G101:
; .FSTART _glcd_putpixelm_G101
	ST   -Y,R26
	LDD  R30,Y+2
	ST   -Y,R30
	LDD  R30,Y+2
	ST   -Y,R30
	__GETB1MN _glcd_state,9
	LDD  R26,Y+2
	AND  R30,R26
	BREQ _0x202003E
	LDS  R30,_glcd_state
	RJMP _0x202003F
_0x202003E:
	__GETB1MN _glcd_state,1
_0x202003F:
	MOV  R26,R30
	RCALL _glcd_putpixel
	LD   R30,Y
	LSL  R30
	ST   Y,R30
	CPI  R30,0
	BRNE _0x2020041
	LDI  R30,LOW(1)
	ST   Y,R30
_0x2020041:
	LD   R30,Y
	RJMP _0x2100003
; .FEND
_glcd_moveto:
; .FSTART _glcd_moveto
	ST   -Y,R26
	LDD  R26,Y+1
	CLR  R27
	RCALL _glcd_clipx
	__PUTB1MN _glcd_state,2
	LD   R26,Y
	CLR  R27
	RCALL _glcd_clipy
	__PUTB1MN _glcd_state,3
_0x2100006:
	ADIW R28,2
	RET
; .FEND
_glcd_line:
; .FSTART _glcd_line
	ST   -Y,R26
	SBIW R28,11
	CALL __SAVELOCR6
	LDD  R26,Y+20
	CLR  R27
	RCALL _glcd_clipx
	STD  Y+20,R30
	LDD  R26,Y+18
	CLR  R27
	RCALL _glcd_clipx
	STD  Y+18,R30
	LDD  R26,Y+19
	CLR  R27
	RCALL _glcd_clipy
	STD  Y+19,R30
	LDD  R26,Y+17
	CLR  R27
	RCALL _glcd_clipy
	STD  Y+17,R30
	LDD  R30,Y+18
	__PUTB1MN _glcd_state,2
	LDD  R30,Y+17
	__PUTB1MN _glcd_state,3
	LDI  R30,LOW(1)
	STD  Y+8,R30
	LDD  R30,Y+17
	LDD  R26,Y+19
	CP   R30,R26
	BRNE _0x2020042
	LDD  R17,Y+20
	LDD  R26,Y+18
	CP   R17,R26
	BRNE _0x2020043
	ST   -Y,R17
	LDD  R30,Y+20
	ST   -Y,R30
	LDI  R26,LOW(1)
	RCALL _glcd_putpixelm_G101
	RJMP _0x2100005
_0x2020043:
	LDD  R26,Y+18
	CP   R17,R26
	BRSH _0x2020044
	LDD  R30,Y+18
	SUB  R30,R17
	MOV  R16,R30
	__GETWRN 20,21,1
	RJMP _0x2020045
_0x2020044:
	LDD  R26,Y+18
	MOV  R30,R17
	SUB  R30,R26
	MOV  R16,R30
	__GETWRN 20,21,-1
_0x2020045:
_0x2020047:
	LDD  R19,Y+19
	LDI  R30,LOW(0)
	STD  Y+6,R30
_0x2020049:
	CALL SUBOPT_0xB
	BRSH _0x202004B
	ST   -Y,R17
	ST   -Y,R19
	INC  R19
	LDD  R26,Y+10
	RCALL _glcd_putpixelm_G101
	STD  Y+7,R30
	RJMP _0x2020049
_0x202004B:
	LDD  R30,Y+7
	STD  Y+8,R30
	ADD  R17,R20
	MOV  R30,R16
	SUBI R16,1
	CPI  R30,0
	BRNE _0x2020047
	RJMP _0x202004C
_0x2020042:
	LDD  R30,Y+18
	LDD  R26,Y+20
	CP   R30,R26
	BRNE _0x202004D
	LDD  R19,Y+19
	LDD  R26,Y+17
	CP   R19,R26
	BRSH _0x202004E
	LDD  R30,Y+17
	SUB  R30,R19
	MOV  R18,R30
	LDI  R30,LOW(1)
	LDI  R31,HIGH(1)
	RJMP _0x202011B
_0x202004E:
	LDD  R26,Y+17
	MOV  R30,R19
	SUB  R30,R26
	MOV  R18,R30
	LDI  R30,LOW(65535)
	LDI  R31,HIGH(65535)
_0x202011B:
	STD  Y+13,R30
	STD  Y+13+1,R31
_0x2020051:
	LDD  R17,Y+20
	LDI  R30,LOW(0)
	STD  Y+6,R30
_0x2020053:
	CALL SUBOPT_0xB
	BRSH _0x2020055
	ST   -Y,R17
	INC  R17
	CALL SUBOPT_0xC
	STD  Y+7,R30
	RJMP _0x2020053
_0x2020055:
	LDD  R30,Y+7
	STD  Y+8,R30
	LDD  R30,Y+13
	ADD  R19,R30
	MOV  R30,R18
	SUBI R18,1
	CPI  R30,0
	BRNE _0x2020051
	RJMP _0x2020056
_0x202004D:
	LDI  R30,LOW(0)
	STD  Y+6,R30
_0x2020057:
	CALL SUBOPT_0xB
	BRLO PC+2
	RJMP _0x2020059
	LDD  R17,Y+20
	LDD  R19,Y+19
	LDI  R30,LOW(1)
	MOV  R18,R30
	MOV  R16,R30
	LDD  R26,Y+18
	CLR  R27
	LDD  R30,Y+20
	LDI  R31,0
	SUB  R26,R30
	SBC  R27,R31
	MOVW R20,R26
	TST  R21
	BRPL _0x202005A
	LDI  R16,LOW(255)
	MOVW R30,R20
	CALL __ANEGW1
	MOVW R20,R30
_0x202005A:
	MOVW R30,R20
	LSL  R30
	ROL  R31
	STD  Y+15,R30
	STD  Y+15+1,R31
	LDD  R26,Y+17
	CLR  R27
	LDD  R30,Y+19
	LDI  R31,0
	SUB  R26,R30
	SBC  R27,R31
	STD  Y+13,R26
	STD  Y+13+1,R27
	LDD  R26,Y+14
	TST  R26
	BRPL _0x202005B
	LDI  R18,LOW(255)
	LDD  R30,Y+13
	LDD  R31,Y+13+1
	CALL __ANEGW1
	STD  Y+13,R30
	STD  Y+13+1,R31
_0x202005B:
	LDD  R30,Y+13
	LDD  R31,Y+13+1
	LSL  R30
	ROL  R31
	STD  Y+11,R30
	STD  Y+11+1,R31
	ST   -Y,R17
	ST   -Y,R19
	LDI  R26,LOW(1)
	RCALL _glcd_putpixelm_G101
	STD  Y+8,R30
	LDI  R30,LOW(0)
	STD  Y+9,R30
	STD  Y+9+1,R30
	LDD  R26,Y+13
	LDD  R27,Y+13+1
	CP   R20,R26
	CPC  R21,R27
	BRLT _0x202005C
_0x202005E:
	ADD  R17,R16
	LDD  R30,Y+11
	LDD  R31,Y+11+1
	CALL SUBOPT_0xD
	LDD  R26,Y+9
	LDD  R27,Y+9+1
	CP   R20,R26
	CPC  R21,R27
	BRGE _0x2020060
	ADD  R19,R18
	LDD  R26,Y+15
	LDD  R27,Y+15+1
	CALL SUBOPT_0xE
_0x2020060:
	ST   -Y,R17
	CALL SUBOPT_0xC
	STD  Y+8,R30
	LDD  R30,Y+18
	CP   R30,R17
	BRNE _0x202005E
	RJMP _0x2020061
_0x202005C:
_0x2020063:
	ADD  R19,R18
	LDD  R30,Y+15
	LDD  R31,Y+15+1
	CALL SUBOPT_0xD
	LDD  R30,Y+13
	LDD  R31,Y+13+1
	LDD  R26,Y+9
	LDD  R27,Y+9+1
	CP   R30,R26
	CPC  R31,R27
	BRGE _0x2020065
	ADD  R17,R16
	LDD  R26,Y+11
	LDD  R27,Y+11+1
	CALL SUBOPT_0xE
_0x2020065:
	ST   -Y,R17
	CALL SUBOPT_0xC
	STD  Y+8,R30
	LDD  R30,Y+17
	CP   R30,R19
	BRNE _0x2020063
_0x2020061:
	LDD  R30,Y+19
	SUBI R30,-LOW(1)
	STD  Y+19,R30
	LDD  R30,Y+17
	SUBI R30,-LOW(1)
	STD  Y+17,R30
	RJMP _0x2020057
_0x2020059:
_0x2020056:
_0x202004C:
_0x2100005:
	CALL __LOADLOCR6
	ADIW R28,21
	RET
; .FEND
_glcd_plot8_G101:
; .FSTART _glcd_plot8_G101
	ST   -Y,R27
	ST   -Y,R26
	SBIW R28,3
	CALL __SAVELOCR6
	LDD  R30,Y+13
	STD  Y+8,R30
	__GETB1MN _glcd_state,8
	STD  Y+7,R30
	LDS  R30,_glcd_state
	STD  Y+6,R30
	LDD  R26,Y+18
	CLR  R27
	LDD  R30,Y+15
	CALL SUBOPT_0xF
	LDD  R30,Y+16
	CALL SUBOPT_0x10
	LDD  R30,Y+16
	CALL SUBOPT_0x11
	BREQ _0x2020073
	LDD  R30,Y+8
	ANDI R30,LOW(0x80)
	BRNE _0x2020075
	LDD  R26,Y+13
	LDD  R27,Y+13+1
	LDI  R30,LOW(90)
	LDI  R31,HIGH(90)
	CALL SUBOPT_0x12
	BRLT _0x2020077
	CALL SUBOPT_0x13
	BRGE _0x2020078
_0x2020077:
	RJMP _0x2020076
_0x2020078:
_0x2020073:
	TST  R19
	BRMI _0x2020079
	CALL SUBOPT_0x14
_0x2020079:
	LDD  R26,Y+7
	CPI  R26,LOW(0x2)
	BRLO _0x202007B
	__CPWRN 18,19,2
	BRGE _0x202007C
_0x202007B:
	RJMP _0x202007A
_0x202007C:
	CALL SUBOPT_0x15
	BRNE _0x202007D
	ST   -Y,R16
	MOV  R26,R18
	SUBI R26,LOW(1)
	RCALL _glcd_setpixel
_0x202007D:
_0x202007A:
_0x2020076:
_0x2020075:
	LDD  R30,Y+8
	ANDI R30,LOW(0x88)
	CPI  R30,LOW(0x88)
	BREQ _0x202007F
	LDD  R30,Y+8
	ANDI R30,LOW(0x80)
	BRNE _0x2020081
	LDD  R26,Y+13
	LDD  R27,Y+13+1
	SUBI R26,LOW(-270)
	SBCI R27,HIGH(-270)
	CALL SUBOPT_0x16
	BRLT _0x2020083
	LDD  R26,Y+13
	LDD  R27,Y+13+1
	SUBI R26,LOW(-270)
	SBCI R27,HIGH(-270)
	CALL SUBOPT_0x17
	BRGE _0x2020084
_0x2020083:
	RJMP _0x2020082
_0x2020084:
_0x202007F:
	CALL SUBOPT_0x18
	BRLO _0x2020085
	CALL SUBOPT_0x19
	BRNE _0x2020086
	ST   -Y,R16
	MOV  R26,R20
	SUBI R26,-LOW(1)
	RCALL _glcd_setpixel
_0x2020086:
_0x2020085:
_0x2020082:
_0x2020081:
	LDD  R26,Y+18
	CLR  R27
	LDD  R30,Y+15
	LDI  R31,0
	SUB  R26,R30
	SBC  R27,R31
	MOVW R16,R26
	TST  R17
	BRPL PC+2
	RJMP _0x2020087
	LDD  R30,Y+8
	ANDI R30,LOW(0x82)
	CPI  R30,LOW(0x82)
	BREQ _0x2020089
	LDD  R30,Y+8
	ANDI R30,LOW(0x80)
	BRNE _0x202008B
	LDD  R26,Y+13
	LDD  R27,Y+13+1
	SUBI R26,LOW(-90)
	SBCI R27,HIGH(-90)
	CALL SUBOPT_0x16
	BRLT _0x202008D
	LDD  R26,Y+13
	LDD  R27,Y+13+1
	SUBI R26,LOW(-90)
	SBCI R27,HIGH(-90)
	CALL SUBOPT_0x17
	BRGE _0x202008E
_0x202008D:
	RJMP _0x202008C
_0x202008E:
_0x2020089:
	TST  R19
	BRMI _0x202008F
	CALL SUBOPT_0x14
_0x202008F:
	LDD  R26,Y+7
	CPI  R26,LOW(0x2)
	BRLO _0x2020091
	__CPWRN 18,19,2
	BRGE _0x2020092
_0x2020091:
	RJMP _0x2020090
_0x2020092:
	CALL SUBOPT_0x15
	BRNE _0x2020093
	ST   -Y,R16
	MOV  R26,R18
	SUBI R26,LOW(1)
	RCALL _glcd_setpixel
_0x2020093:
_0x2020090:
_0x202008C:
_0x202008B:
	LDD  R30,Y+8
	ANDI R30,LOW(0x84)
	CPI  R30,LOW(0x84)
	BREQ _0x2020095
	LDD  R30,Y+8
	ANDI R30,LOW(0x80)
	BRNE _0x2020097
	LDD  R26,Y+13
	LDD  R27,Y+13+1
	LDI  R30,LOW(270)
	LDI  R31,HIGH(270)
	CALL SUBOPT_0x12
	BRLT _0x2020099
	CALL SUBOPT_0x13
	BRGE _0x202009A
_0x2020099:
	RJMP _0x2020098
_0x202009A:
_0x2020095:
	CALL SUBOPT_0x18
	BRLO _0x202009B
	CALL SUBOPT_0x19
	BRNE _0x202009C
	ST   -Y,R16
	MOV  R26,R20
	SUBI R26,-LOW(1)
	RCALL _glcd_setpixel
_0x202009C:
_0x202009B:
_0x2020098:
_0x2020097:
_0x2020087:
	LDD  R26,Y+18
	CLR  R27
	LDD  R30,Y+16
	CALL SUBOPT_0xF
	LDD  R30,Y+15
	CALL SUBOPT_0x10
	LDD  R30,Y+15
	CALL SUBOPT_0x11
	BREQ _0x202009E
	LDD  R30,Y+8
	ANDI R30,LOW(0x80)
	BRNE _0x20200A0
	LDD  R30,Y+11
	LDD  R31,Y+11+1
	LDD  R26,Y+13
	LDD  R27,Y+13+1
	CP   R26,R30
	CPC  R27,R31
	BRLT _0x20200A2
	LDD  R30,Y+9
	LDD  R31,Y+9+1
	CP   R30,R26
	CPC  R31,R27
	BRGE _0x20200A3
_0x20200A2:
	RJMP _0x20200A1
_0x20200A3:
_0x202009E:
	TST  R19
	BRMI _0x20200A4
	CALL SUBOPT_0x14
	LDD  R26,Y+7
	CPI  R26,LOW(0x2)
	BRLO _0x20200A5
	MOV  R30,R16
	SUBI R30,-LOW(2)
	CALL SUBOPT_0x1A
	BRNE _0x20200A6
	MOV  R30,R16
	SUBI R30,-LOW(1)
	ST   -Y,R30
	MOV  R26,R18
	RCALL _glcd_setpixel
_0x20200A6:
_0x20200A5:
_0x20200A4:
_0x20200A1:
_0x20200A0:
	LDD  R30,Y+8
	ANDI R30,LOW(0x88)
	CPI  R30,LOW(0x88)
	BREQ _0x20200A8
	LDD  R30,Y+8
	ANDI R30,LOW(0x80)
	BRNE _0x20200AA
	LDD  R26,Y+13
	LDD  R27,Y+13+1
	LDI  R30,LOW(360)
	LDI  R31,HIGH(360)
	CALL SUBOPT_0x12
	BRLT _0x20200AC
	CALL SUBOPT_0x13
	BRGE _0x20200AD
_0x20200AC:
	RJMP _0x20200AB
_0x20200AD:
_0x20200A8:
	CALL SUBOPT_0x18
	BRLO _0x20200AE
	MOV  R30,R16
	SUBI R30,-LOW(2)
	CALL SUBOPT_0x1B
	BRNE _0x20200AF
	MOV  R30,R16
	SUBI R30,-LOW(1)
	ST   -Y,R30
	MOV  R26,R20
	RCALL _glcd_setpixel
_0x20200AF:
_0x20200AE:
_0x20200AB:
_0x20200AA:
	LDD  R26,Y+18
	CLR  R27
	LDD  R30,Y+16
	LDI  R31,0
	SUB  R26,R30
	SBC  R27,R31
	MOVW R16,R26
	TST  R17
	BRPL PC+2
	RJMP _0x20200B0
	LDD  R30,Y+8
	ANDI R30,LOW(0x82)
	CPI  R30,LOW(0x82)
	BREQ _0x20200B2
	LDD  R30,Y+8
	ANDI R30,LOW(0x80)
	BRNE _0x20200B4
	LDD  R26,Y+13
	LDD  R27,Y+13+1
	LDI  R30,LOW(180)
	LDI  R31,HIGH(180)
	CALL SUBOPT_0x12
	BRLT _0x20200B6
	CALL SUBOPT_0x13
	BRGE _0x20200B7
_0x20200B6:
	RJMP _0x20200B5
_0x20200B7:
_0x20200B2:
	TST  R19
	BRMI _0x20200B8
	CALL SUBOPT_0x14
	LDD  R26,Y+7
	CPI  R26,LOW(0x2)
	BRLO _0x20200BA
	__CPWRN 16,17,2
	BRGE _0x20200BB
_0x20200BA:
	RJMP _0x20200B9
_0x20200BB:
	MOV  R30,R16
	SUBI R30,LOW(2)
	CALL SUBOPT_0x1A
	BRNE _0x20200BC
	MOV  R30,R16
	SUBI R30,LOW(1)
	ST   -Y,R30
	MOV  R26,R18
	RCALL _glcd_setpixel
_0x20200BC:
_0x20200B9:
_0x20200B8:
_0x20200B5:
_0x20200B4:
	LDD  R30,Y+8
	ANDI R30,LOW(0x84)
	CPI  R30,LOW(0x84)
	BREQ _0x20200BE
	LDD  R30,Y+8
	ANDI R30,LOW(0x80)
	BRNE _0x20200C0
	LDD  R26,Y+13
	LDD  R27,Y+13+1
	SUBI R26,LOW(-180)
	SBCI R27,HIGH(-180)
	CALL SUBOPT_0x16
	BRLT _0x20200C2
	LDD  R26,Y+13
	LDD  R27,Y+13+1
	SUBI R26,LOW(-180)
	SBCI R27,HIGH(-180)
	CALL SUBOPT_0x17
	BRGE _0x20200C3
_0x20200C2:
	RJMP _0x20200C1
_0x20200C3:
_0x20200BE:
	CALL SUBOPT_0x18
	BRLO _0x20200C5
	__CPWRN 16,17,2
	BRGE _0x20200C6
_0x20200C5:
	RJMP _0x20200C4
_0x20200C6:
	MOV  R30,R16
	SUBI R30,LOW(2)
	CALL SUBOPT_0x1B
	BRNE _0x20200C7
	MOV  R30,R16
	SUBI R30,LOW(1)
	ST   -Y,R30
	MOV  R26,R20
	RCALL _glcd_setpixel
_0x20200C7:
_0x20200C4:
_0x20200C1:
_0x20200C0:
_0x20200B0:
	CALL __LOADLOCR6
	ADIW R28,19
	RET
; .FEND
_glcd_line2_G101:
; .FSTART _glcd_line2_G101
	ST   -Y,R26
	CALL __SAVELOCR4
	LDD  R26,Y+7
	CLR  R27
	LDD  R30,Y+5
	LDI  R31,0
	SUB  R26,R30
	SBC  R27,R31
	RCALL _glcd_clipx
	MOV  R17,R30
	LDD  R26,Y+7
	CLR  R27
	LDD  R30,Y+5
	LDI  R31,0
	ADD  R26,R30
	ADC  R27,R31
	RCALL _glcd_clipx
	MOV  R16,R30
	LDD  R26,Y+6
	CLR  R27
	LDD  R30,Y+4
	LDI  R31,0
	SUB  R26,R30
	SBC  R27,R31
	RCALL _glcd_clipy
	MOV  R19,R30
	LDD  R26,Y+6
	CLR  R27
	LDD  R30,Y+4
	LDI  R31,0
	ADD  R26,R30
	ADC  R27,R31
	RCALL _glcd_clipy
	MOV  R18,R30
	ST   -Y,R17
	ST   -Y,R19
	ST   -Y,R16
	MOV  R26,R19
	RCALL _glcd_line
	ST   -Y,R17
	ST   -Y,R18
	ST   -Y,R16
	MOV  R26,R18
	RCALL _glcd_line
	CALL __LOADLOCR4
	ADIW R28,8
	RET
; .FEND
_glcd_quadrant_G101:
; .FSTART _glcd_quadrant_G101
	ST   -Y,R26
	CALL __SAVELOCR6
	LDD  R26,Y+9
	CPI  R26,LOW(0x80)
	BRSH _0x20200C9
	LDD  R26,Y+8
	CPI  R26,LOW(0x40)
	BRLO _0x20200C8
_0x20200C9:
	RJMP _0x2100004
_0x20200C8:
	__GETBRMN 21,_glcd_state,8
_0x20200CB:
	MOV  R30,R21
	SUBI R21,1
	CPI  R30,0
	BRNE PC+2
	RJMP _0x20200CD
	LDD  R30,Y+7
	CPI  R30,0
	BRNE _0x20200CE
	RJMP _0x2100004
_0x20200CE:
	LDD  R30,Y+7
	SUBI R30,LOW(1)
	STD  Y+7,R30
	SUBI R30,-LOW(1)
	MOV  R16,R30
	LDI  R31,0
	LDI  R26,LOW(5)
	LDI  R27,HIGH(5)
	SUB  R26,R30
	SBC  R27,R31
	MOVW R30,R26
	CALL __LSLW2
	CALL __ASRW2
	MOVW R18,R30
	LDI  R17,LOW(0)
_0x20200D0:
	LDD  R26,Y+6
	CPI  R26,LOW(0x40)
	BRNE _0x20200D2
	CALL SUBOPT_0x1C
	ST   -Y,R17
	MOV  R26,R16
	RCALL _glcd_line2_G101
	CALL SUBOPT_0x1C
	ST   -Y,R16
	MOV  R26,R17
	RCALL _glcd_line2_G101
	RJMP _0x20200D3
_0x20200D2:
	CALL SUBOPT_0x1C
	ST   -Y,R17
	ST   -Y,R16
	LDD  R30,Y+10
	LDI  R31,0
	ST   -Y,R31
	ST   -Y,R30
	LDI  R30,LOW(0)
	LDI  R31,HIGH(0)
	ST   -Y,R31
	ST   -Y,R30
	LDI  R26,LOW(0)
	LDI  R27,0
	RCALL _glcd_plot8_G101
_0x20200D3:
	SUBI R17,-1
	TST  R19
	BRPL _0x20200D4
	MOV  R30,R17
	LDI  R31,0
	RJMP _0x202011C
_0x20200D4:
	SUBI R16,1
	MOV  R26,R17
	CLR  R27
	MOV  R30,R16
	LDI  R31,0
	SUB  R26,R30
	SBC  R27,R31
	MOVW R30,R26
_0x202011C:
	LSL  R30
	ROL  R31
	ADIW R30,1
	__ADDWRR 18,19,30,31
	CP   R16,R17
	BRSH _0x20200D0
	RJMP _0x20200CB
_0x20200CD:
_0x2100004:
	CALL __LOADLOCR6
	ADIW R28,10
	RET
; .FEND
_glcd_circle:
; .FSTART _glcd_circle
	ST   -Y,R26
	LDD  R30,Y+2
	ST   -Y,R30
	LDD  R30,Y+2
	ST   -Y,R30
	LDD  R30,Y+2
	ST   -Y,R30
	LDI  R26,LOW(143)
	RCALL _glcd_quadrant_G101
_0x2100003:
	ADIW R28,3
	RET
; .FEND

	.CSEG
_ftrunc:
; .FSTART _ftrunc
	CALL __PUTPARD2
   ldd  r23,y+3
   ldd  r22,y+2
   ldd  r31,y+1
   ld   r30,y
   bst  r23,7
   lsl  r23
   sbrc r22,7
   sbr  r23,1
   mov  r25,r23
   subi r25,0x7e
   breq __ftrunc0
   brcs __ftrunc0
   cpi  r25,24
   brsh __ftrunc1
   clr  r26
   clr  r27
   clr  r24
__ftrunc2:
   sec
   ror  r24
   ror  r27
   ror  r26
   dec  r25
   brne __ftrunc2
   and  r30,r26
   and  r31,r27
   and  r22,r24
   rjmp __ftrunc1
__ftrunc0:
   clt
   clr  r23
   clr  r30
   clr  r31
   clr  r22
__ftrunc1:
   cbr  r22,0x80
   lsr  r23
   brcc __ftrunc3
   sbr  r22,0x80
__ftrunc3:
   bld  r23,7
   ld   r26,y+
   ld   r27,y+
   ld   r24,y+
   ld   r25,y+
   cp   r30,r26
   cpc  r31,r27
   cpc  r22,r24
   cpc  r23,r25
   bst  r25,7
   ret
; .FEND
_floor:
; .FSTART _floor
	CALL SUBOPT_0x1D
	CALL _ftrunc
	CALL __PUTD1S0
    brne __floor1
__floor0:
	CALL __GETD1S0
	RJMP _0x2100002
__floor1:
    brtc __floor0
	CALL __GETD1S0
	__GETD2N 0x3F800000
	CALL __SUBF12
	RJMP _0x2100002
; .FEND
_sin:
; .FSTART _sin
	CALL __PUTPARD2
	SBIW R28,4
	ST   -Y,R17
	LDI  R17,0
	CALL SUBOPT_0x1E
	__GETD1N 0x3E22F983
	CALL __MULF12
	CALL SUBOPT_0x1F
	RCALL _floor
	CALL SUBOPT_0x1E
	CALL __SWAPD12
	CALL __SUBF12
	CALL SUBOPT_0x1F
	__GETD1N 0x3F000000
	CALL __CMPF12
	BREQ PC+2
	BRCC PC+2
	RJMP _0x2060017
	CALL SUBOPT_0x20
	__GETD2N 0x3F000000
	CALL SUBOPT_0x21
	LDI  R17,LOW(1)
_0x2060017:
	CALL SUBOPT_0x1E
	__GETD1N 0x3E800000
	CALL __CMPF12
	BREQ PC+2
	BRCC PC+2
	RJMP _0x2060018
	CALL SUBOPT_0x1E
	__GETD1N 0x3F000000
	CALL SUBOPT_0x21
_0x2060018:
	CPI  R17,0
	BREQ _0x2060019
	CALL SUBOPT_0x20
	CALL __ANEGF1
	__PUTD1S 5
_0x2060019:
	CALL SUBOPT_0x20
	CALL SUBOPT_0x1E
	CALL __MULF12
	__PUTD1S 1
	__GETD2N 0x4226C4B1
	CALL __MULF12
	MOVW R26,R30
	MOVW R24,R22
	__GETD1N 0x422DE51D
	CALL __SWAPD12
	CALL __SUBF12
	CALL SUBOPT_0x22
	__GETD2N 0x4104534C
	CALL __ADDF12
	CALL SUBOPT_0x1E
	CALL __MULF12
	PUSH R23
	PUSH R22
	PUSH R31
	PUSH R30
	__GETD1S 1
	__GETD2N 0x3FDEED11
	CALL __ADDF12
	CALL SUBOPT_0x22
	__GETD2N 0x3FA87B5E
	CALL __ADDF12
	POP  R26
	POP  R27
	POP  R24
	POP  R25
	CALL __DIVF21
	LDD  R17,Y+0
	ADIW R28,9
	RET
; .FEND
_cos:
; .FSTART _cos
	CALL SUBOPT_0x1D
	__GETD1N 0x3FC90FDB
	CALL __SUBF12
	MOVW R26,R30
	MOVW R24,R22
	RCALL _sin
_0x2100002:
	ADIW R28,4
	RET
; .FEND

	.CSEG
_memset:
; .FSTART _memset
	ST   -Y,R27
	ST   -Y,R26
    ldd  r27,y+1
    ld   r26,y
    adiw r26,0
    breq memset1
    ldd  r31,y+4
    ldd  r30,y+3
    ldd  r22,y+2
memset0:
    st   z+,r22
    sbiw r26,1
    brne memset0
memset1:
    ldd  r30,y+3
    ldd  r31,y+4
_0x2100001:
	ADIW R28,5
	RET
; .FEND

	.CSEG

	.CSEG

	.DSEG

	.CSEG

	.CSEG

	.DSEG
_glcd_state:
	.BYTE 0x1D
_ks0108_coord_G100:
	.BYTE 0x3
__seed_G106:
	.BYTE 0x4

	.CSEG
;OPTIMIZER ADDED SUBROUTINE, CALLED 5 TIMES, CODE SIZE REDUCTION:5 WORDS
SUBOPT_0x0:
	LDI  R30,LOW(60)
	ST   -Y,R30
	LDI  R30,LOW(31)
	ST   -Y,R30
	RET

;OPTIMIZER ADDED SUBROUTINE, CALLED 2 TIMES, CODE SIZE REDUCTION:1 WORDS
SUBOPT_0x1:
	LDI  R30,LOW(1)
	__PUTB1MN _glcd_state,8
	LDI  R30,LOW(255)
	__PUTB1MN _glcd_state,9
	RET

;OPTIMIZER ADDED SUBROUTINE, CALLED 2 TIMES, CODE SIZE REDUCTION:11 WORDS
SUBOPT_0x2:
	MOVW R30,R8
	LDI  R26,LOW(60)
	LDI  R27,HIGH(60)
	CALL __MULW12
	MOVW R26,R30
	LDI  R30,LOW(10)
	LDI  R31,HIGH(10)
	CALL __DIVW21
	CALL __CWD1
	CALL __CDF1
	MOVW R26,R30
	MOVW R24,R22
	RET

;OPTIMIZER ADDED SUBROUTINE, CALLED 2 TIMES, CODE SIZE REDUCTION:3 WORDS
SUBOPT_0x3:
	__GETD2N 0x41C80000
	CALL __MULF12
	CALL __CFD1
	RET

;OPTIMIZER ADDED SUBROUTINE, CALLED 3 TIMES, CODE SIZE REDUCTION:5 WORDS
SUBOPT_0x4:
	ST   -Y,R30
	LDI  R30,LOW(31)
	SUB  R30,R6
	MOV  R26,R30
	JMP  _glcd_line

;OPTIMIZER ADDED SUBROUTINE, CALLED 2 TIMES, CODE SIZE REDUCTION:11 WORDS
SUBOPT_0x5:
	MOVW R30,R10
	LDI  R26,LOW(60)
	LDI  R27,HIGH(60)
	CALL __MULW12
	MOVW R26,R30
	LDI  R30,LOW(10)
	LDI  R31,HIGH(10)
	CALL __DIVW21
	CALL __CWD1
	CALL __CDF1
	MOVW R26,R30
	MOVW R24,R22
	RET

;OPTIMIZER ADDED SUBROUTINE, CALLED 2 TIMES, CODE SIZE REDUCTION:3 WORDS
SUBOPT_0x6:
	__GETD2N 0x41A00000
	CALL __MULF12
	CALL __CFD1
	RET

;OPTIMIZER ADDED SUBROUTINE, CALLED 2 TIMES, CODE SIZE REDUCTION:11 WORDS
SUBOPT_0x7:
	MOVW R30,R12
	LDI  R26,LOW(60)
	LDI  R27,HIGH(60)
	CALL __MULW12
	MOVW R26,R30
	LDI  R30,LOW(10)
	LDI  R31,HIGH(10)
	CALL __DIVW21
	CALL __CWD1
	CALL __CDF1
	MOVW R26,R30
	MOVW R24,R22
	RET

;OPTIMIZER ADDED SUBROUTINE, CALLED 2 TIMES, CODE SIZE REDUCTION:3 WORDS
SUBOPT_0x8:
	__GETD2N 0x41700000
	CALL __MULF12
	CALL __CFD1
	RET

;OPTIMIZER ADDED SUBROUTINE, CALLED 2 TIMES, CODE SIZE REDUCTION:4 WORDS
SUBOPT_0x9:
	CBI  0x12,1
	LDI  R30,LOW(255)
	OUT  0x14,R30
	LD   R30,Y
	OUT  0x15,R30
	CALL _ks0108_enable_G100
	JMP  _ks0108_disable_G100

;OPTIMIZER ADDED SUBROUTINE, CALLED 2 TIMES, CODE SIZE REDUCTION:1 WORDS
SUBOPT_0xA:
	ST   -Y,R27
	ST   -Y,R26
	LD   R26,Y
	LDD  R27,Y+1
	CALL __CPW02
	RET

;OPTIMIZER ADDED SUBROUTINE, CALLED 3 TIMES, CODE SIZE REDUCTION:7 WORDS
SUBOPT_0xB:
	LDD  R26,Y+6
	SUBI R26,-LOW(1)
	STD  Y+6,R26
	SUBI R26,LOW(1)
	__GETB1MN _glcd_state,8
	CP   R26,R30
	RET

;OPTIMIZER ADDED SUBROUTINE, CALLED 3 TIMES, CODE SIZE REDUCTION:1 WORDS
SUBOPT_0xC:
	ST   -Y,R19
	LDD  R26,Y+10
	JMP  _glcd_putpixelm_G101

;OPTIMIZER ADDED SUBROUTINE, CALLED 2 TIMES, CODE SIZE REDUCTION:1 WORDS
SUBOPT_0xD:
	LDD  R26,Y+9
	LDD  R27,Y+9+1
	ADD  R30,R26
	ADC  R31,R27
	STD  Y+9,R30
	STD  Y+9+1,R31
	RET

;OPTIMIZER ADDED SUBROUTINE, CALLED 2 TIMES, CODE SIZE REDUCTION:1 WORDS
SUBOPT_0xE:
	LDD  R30,Y+9
	LDD  R31,Y+9+1
	SUB  R30,R26
	SBC  R31,R27
	STD  Y+9,R30
	STD  Y+9+1,R31
	RET

;OPTIMIZER ADDED SUBROUTINE, CALLED 2 TIMES, CODE SIZE REDUCTION:1 WORDS
SUBOPT_0xF:
	LDI  R31,0
	ADD  R30,R26
	ADC  R31,R27
	MOVW R16,R30
	LDD  R26,Y+17
	CLR  R27
	RET

;OPTIMIZER ADDED SUBROUTINE, CALLED 2 TIMES, CODE SIZE REDUCTION:1 WORDS
SUBOPT_0x10:
	LDI  R31,0
	SUB  R26,R30
	SBC  R27,R31
	MOVW R18,R26
	LDD  R26,Y+17
	CLR  R27
	RET

;OPTIMIZER ADDED SUBROUTINE, CALLED 2 TIMES, CODE SIZE REDUCTION:2 WORDS
SUBOPT_0x11:
	LDI  R31,0
	ADD  R30,R26
	ADC  R31,R27
	MOVW R20,R30
	LDD  R30,Y+8
	ANDI R30,LOW(0x81)
	CPI  R30,LOW(0x81)
	RET

;OPTIMIZER ADDED SUBROUTINE, CALLED 4 TIMES, CODE SIZE REDUCTION:15 WORDS
SUBOPT_0x12:
	SUB  R30,R26
	SBC  R31,R27
	MOVW R0,R30
	MOVW R26,R30
	LDD  R30,Y+11
	LDD  R31,Y+11+1
	CP   R26,R30
	CPC  R27,R31
	RET

;OPTIMIZER ADDED SUBROUTINE, CALLED 4 TIMES, CODE SIZE REDUCTION:3 WORDS
SUBOPT_0x13:
	LDD  R30,Y+9
	LDD  R31,Y+9+1
	CP   R30,R0
	CPC  R31,R1
	RET

;OPTIMIZER ADDED SUBROUTINE, CALLED 4 TIMES, CODE SIZE REDUCTION:3 WORDS
SUBOPT_0x14:
	ST   -Y,R16
	MOV  R26,R18
	JMP  _glcd_setpixel

;OPTIMIZER ADDED SUBROUTINE, CALLED 2 TIMES, CODE SIZE REDUCTION:3 WORDS
SUBOPT_0x15:
	ST   -Y,R16
	MOV  R26,R18
	SUBI R26,LOW(2)
	CALL _glcd_getpixel
	MOV  R26,R30
	LDD  R30,Y+6
	CP   R30,R26
	RET

;OPTIMIZER ADDED SUBROUTINE, CALLED 3 TIMES, CODE SIZE REDUCTION:1 WORDS
SUBOPT_0x16:
	LDD  R30,Y+11
	LDD  R31,Y+11+1
	CP   R26,R30
	CPC  R27,R31
	RET

;OPTIMIZER ADDED SUBROUTINE, CALLED 3 TIMES, CODE SIZE REDUCTION:1 WORDS
SUBOPT_0x17:
	LDD  R30,Y+9
	LDD  R31,Y+9+1
	CP   R30,R26
	CPC  R31,R27
	RET

;OPTIMIZER ADDED SUBROUTINE, CALLED 4 TIMES, CODE SIZE REDUCTION:9 WORDS
SUBOPT_0x18:
	ST   -Y,R16
	MOV  R26,R20
	CALL _glcd_setpixel
	LDD  R26,Y+7
	CPI  R26,LOW(0x2)
	RET

;OPTIMIZER ADDED SUBROUTINE, CALLED 2 TIMES, CODE SIZE REDUCTION:3 WORDS
SUBOPT_0x19:
	ST   -Y,R16
	MOV  R26,R20
	SUBI R26,-LOW(2)
	CALL _glcd_getpixel
	MOV  R26,R30
	LDD  R30,Y+6
	CP   R30,R26
	RET

;OPTIMIZER ADDED SUBROUTINE, CALLED 2 TIMES, CODE SIZE REDUCTION:2 WORDS
SUBOPT_0x1A:
	ST   -Y,R30
	MOV  R26,R18
	CALL _glcd_getpixel
	MOV  R26,R30
	LDD  R30,Y+6
	CP   R30,R26
	RET

;OPTIMIZER ADDED SUBROUTINE, CALLED 2 TIMES, CODE SIZE REDUCTION:2 WORDS
SUBOPT_0x1B:
	ST   -Y,R30
	MOV  R26,R20
	CALL _glcd_getpixel
	MOV  R26,R30
	LDD  R30,Y+6
	CP   R30,R26
	RET

;OPTIMIZER ADDED SUBROUTINE, CALLED 3 TIMES, CODE SIZE REDUCTION:1 WORDS
SUBOPT_0x1C:
	LDD  R30,Y+9
	ST   -Y,R30
	LDD  R30,Y+9
	ST   -Y,R30
	RET

;OPTIMIZER ADDED SUBROUTINE, CALLED 2 TIMES, CODE SIZE REDUCTION:1 WORDS
SUBOPT_0x1D:
	CALL __PUTPARD2
	CALL __GETD2S0
	RET

;OPTIMIZER ADDED SUBROUTINE, CALLED 8 TIMES, CODE SIZE REDUCTION:11 WORDS
SUBOPT_0x1E:
	__GETD2S 5
	RET

;OPTIMIZER ADDED SUBROUTINE, CALLED 2 TIMES, CODE SIZE REDUCTION:1 WORDS
SUBOPT_0x1F:
	__PUTD1S 5
	RJMP SUBOPT_0x1E

;OPTIMIZER ADDED SUBROUTINE, CALLED 3 TIMES, CODE SIZE REDUCTION:1 WORDS
SUBOPT_0x20:
	__GETD1S 5
	RET

;OPTIMIZER ADDED SUBROUTINE, CALLED 2 TIMES, CODE SIZE REDUCTION:1 WORDS
SUBOPT_0x21:
	CALL __SUBF12
	__PUTD1S 5
	RET

;OPTIMIZER ADDED SUBROUTINE, CALLED 2 TIMES, CODE SIZE REDUCTION:1 WORDS
SUBOPT_0x22:
	__GETD2S 1
	CALL __MULF12
	RET


	.CSEG
_delay_ms:
	adiw r26,0
	breq __delay_ms1
__delay_ms0:
	__DELAY_USW 0x7D0
	wdr
	sbiw r26,1
	brne __delay_ms0
__delay_ms1:
	ret

__ANEGF1:
	SBIW R30,0
	SBCI R22,0
	SBCI R23,0
	BREQ __ANEGF10
	SUBI R23,0x80
__ANEGF10:
	RET

__ROUND_REPACK:
	TST  R21
	BRPL __REPACK
	CPI  R21,0x80
	BRNE __ROUND_REPACK0
	SBRS R30,0
	RJMP __REPACK
__ROUND_REPACK0:
	ADIW R30,1
	ADC  R22,R25
	ADC  R23,R25
	BRVS __REPACK1

__REPACK:
	LDI  R21,0x80
	EOR  R21,R23
	BRNE __REPACK0
	PUSH R21
	RJMP __ZERORES
__REPACK0:
	CPI  R21,0xFF
	BREQ __REPACK1
	LSL  R22
	LSL  R0
	ROR  R21
	ROR  R22
	MOV  R23,R21
	RET
__REPACK1:
	PUSH R21
	TST  R0
	BRMI __REPACK2
	RJMP __MAXRES
__REPACK2:
	RJMP __MINRES

__UNPACK:
	LDI  R21,0x80
	MOV  R1,R25
	AND  R1,R21
	LSL  R24
	ROL  R25
	EOR  R25,R21
	LSL  R21
	ROR  R24

__UNPACK1:
	LDI  R21,0x80
	MOV  R0,R23
	AND  R0,R21
	LSL  R22
	ROL  R23
	EOR  R23,R21
	LSL  R21
	ROR  R22
	RET

__CFD1U:
	SET
	RJMP __CFD1U0
__CFD1:
	CLT
__CFD1U0:
	PUSH R21
	RCALL __UNPACK1
	CPI  R23,0x80
	BRLO __CFD10
	CPI  R23,0xFF
	BRCC __CFD10
	RJMP __ZERORES
__CFD10:
	LDI  R21,22
	SUB  R21,R23
	BRPL __CFD11
	NEG  R21
	CPI  R21,8
	BRTC __CFD19
	CPI  R21,9
__CFD19:
	BRLO __CFD17
	SER  R30
	SER  R31
	SER  R22
	LDI  R23,0x7F
	BLD  R23,7
	RJMP __CFD15
__CFD17:
	CLR  R23
	TST  R21
	BREQ __CFD15
__CFD18:
	LSL  R30
	ROL  R31
	ROL  R22
	ROL  R23
	DEC  R21
	BRNE __CFD18
	RJMP __CFD15
__CFD11:
	CLR  R23
__CFD12:
	CPI  R21,8
	BRLO __CFD13
	MOV  R30,R31
	MOV  R31,R22
	MOV  R22,R23
	SUBI R21,8
	RJMP __CFD12
__CFD13:
	TST  R21
	BREQ __CFD15
__CFD14:
	LSR  R23
	ROR  R22
	ROR  R31
	ROR  R30
	DEC  R21
	BRNE __CFD14
__CFD15:
	TST  R0
	BRPL __CFD16
	RCALL __ANEGD1
__CFD16:
	POP  R21
	RET

__CDF1U:
	SET
	RJMP __CDF1U0
__CDF1:
	CLT
__CDF1U0:
	SBIW R30,0
	SBCI R22,0
	SBCI R23,0
	BREQ __CDF10
	CLR  R0
	BRTS __CDF11
	TST  R23
	BRPL __CDF11
	COM  R0
	RCALL __ANEGD1
__CDF11:
	MOV  R1,R23
	LDI  R23,30
	TST  R1
__CDF12:
	BRMI __CDF13
	DEC  R23
	LSL  R30
	ROL  R31
	ROL  R22
	ROL  R1
	RJMP __CDF12
__CDF13:
	MOV  R30,R31
	MOV  R31,R22
	MOV  R22,R1
	PUSH R21
	RCALL __REPACK
	POP  R21
__CDF10:
	RET

__SWAPACC:
	PUSH R20
	MOVW R20,R30
	MOVW R30,R26
	MOVW R26,R20
	MOVW R20,R22
	MOVW R22,R24
	MOVW R24,R20
	MOV  R20,R0
	MOV  R0,R1
	MOV  R1,R20
	POP  R20
	RET

__UADD12:
	ADD  R30,R26
	ADC  R31,R27
	ADC  R22,R24
	RET

__NEGMAN1:
	COM  R30
	COM  R31
	COM  R22
	SUBI R30,-1
	SBCI R31,-1
	SBCI R22,-1
	RET

__SUBF12:
	PUSH R21
	RCALL __UNPACK
	CPI  R25,0x80
	BREQ __ADDF129
	LDI  R21,0x80
	EOR  R1,R21

	RJMP __ADDF120

__ADDF12:
	PUSH R21
	RCALL __UNPACK
	CPI  R25,0x80
	BREQ __ADDF129

__ADDF120:
	CPI  R23,0x80
	BREQ __ADDF128
__ADDF121:
	MOV  R21,R23
	SUB  R21,R25
	BRVS __ADDF1211
	BRPL __ADDF122
	RCALL __SWAPACC
	RJMP __ADDF121
__ADDF122:
	CPI  R21,24
	BRLO __ADDF123
	CLR  R26
	CLR  R27
	CLR  R24
__ADDF123:
	CPI  R21,8
	BRLO __ADDF124
	MOV  R26,R27
	MOV  R27,R24
	CLR  R24
	SUBI R21,8
	RJMP __ADDF123
__ADDF124:
	TST  R21
	BREQ __ADDF126
__ADDF125:
	LSR  R24
	ROR  R27
	ROR  R26
	DEC  R21
	BRNE __ADDF125
__ADDF126:
	MOV  R21,R0
	EOR  R21,R1
	BRMI __ADDF127
	RCALL __UADD12
	BRCC __ADDF129
	ROR  R22
	ROR  R31
	ROR  R30
	INC  R23
	BRVC __ADDF129
	RJMP __MAXRES
__ADDF128:
	RCALL __SWAPACC
__ADDF129:
	RCALL __REPACK
	POP  R21
	RET
__ADDF1211:
	BRCC __ADDF128
	RJMP __ADDF129
__ADDF127:
	SUB  R30,R26
	SBC  R31,R27
	SBC  R22,R24
	BREQ __ZERORES
	BRCC __ADDF1210
	COM  R0
	RCALL __NEGMAN1
__ADDF1210:
	TST  R22
	BRMI __ADDF129
	LSL  R30
	ROL  R31
	ROL  R22
	DEC  R23
	BRVC __ADDF1210

__ZERORES:
	CLR  R30
	CLR  R31
	CLR  R22
	CLR  R23
	POP  R21
	RET

__MINRES:
	SER  R30
	SER  R31
	LDI  R22,0x7F
	SER  R23
	POP  R21
	RET

__MAXRES:
	SER  R30
	SER  R31
	LDI  R22,0x7F
	LDI  R23,0x7F
	POP  R21
	RET

__MULF12:
	PUSH R21
	RCALL __UNPACK
	CPI  R23,0x80
	BREQ __ZERORES
	CPI  R25,0x80
	BREQ __ZERORES
	EOR  R0,R1
	SEC
	ADC  R23,R25
	BRVC __MULF124
	BRLT __ZERORES
__MULF125:
	TST  R0
	BRMI __MINRES
	RJMP __MAXRES
__MULF124:
	PUSH R0
	PUSH R17
	PUSH R18
	PUSH R19
	PUSH R20
	CLR  R17
	CLR  R18
	CLR  R25
	MUL  R22,R24
	MOVW R20,R0
	MUL  R24,R31
	MOV  R19,R0
	ADD  R20,R1
	ADC  R21,R25
	MUL  R22,R27
	ADD  R19,R0
	ADC  R20,R1
	ADC  R21,R25
	MUL  R24,R30
	RCALL __MULF126
	MUL  R27,R31
	RCALL __MULF126
	MUL  R22,R26
	RCALL __MULF126
	MUL  R27,R30
	RCALL __MULF127
	MUL  R26,R31
	RCALL __MULF127
	MUL  R26,R30
	ADD  R17,R1
	ADC  R18,R25
	ADC  R19,R25
	ADC  R20,R25
	ADC  R21,R25
	MOV  R30,R19
	MOV  R31,R20
	MOV  R22,R21
	MOV  R21,R18
	POP  R20
	POP  R19
	POP  R18
	POP  R17
	POP  R0
	TST  R22
	BRMI __MULF122
	LSL  R21
	ROL  R30
	ROL  R31
	ROL  R22
	RJMP __MULF123
__MULF122:
	INC  R23
	BRVS __MULF125
__MULF123:
	RCALL __ROUND_REPACK
	POP  R21
	RET

__MULF127:
	ADD  R17,R0
	ADC  R18,R1
	ADC  R19,R25
	RJMP __MULF128
__MULF126:
	ADD  R18,R0
	ADC  R19,R1
__MULF128:
	ADC  R20,R25
	ADC  R21,R25
	RET

__DIVF21:
	PUSH R21
	RCALL __UNPACK
	CPI  R23,0x80
	BRNE __DIVF210
	TST  R1
__DIVF211:
	BRPL __DIVF219
	RJMP __MINRES
__DIVF219:
	RJMP __MAXRES
__DIVF210:
	CPI  R25,0x80
	BRNE __DIVF218
__DIVF217:
	RJMP __ZERORES
__DIVF218:
	EOR  R0,R1
	SEC
	SBC  R25,R23
	BRVC __DIVF216
	BRLT __DIVF217
	TST  R0
	RJMP __DIVF211
__DIVF216:
	MOV  R23,R25
	PUSH R17
	PUSH R18
	PUSH R19
	PUSH R20
	CLR  R1
	CLR  R17
	CLR  R18
	CLR  R19
	CLR  R20
	CLR  R21
	LDI  R25,32
__DIVF212:
	CP   R26,R30
	CPC  R27,R31
	CPC  R24,R22
	CPC  R20,R17
	BRLO __DIVF213
	SUB  R26,R30
	SBC  R27,R31
	SBC  R24,R22
	SBC  R20,R17
	SEC
	RJMP __DIVF214
__DIVF213:
	CLC
__DIVF214:
	ROL  R21
	ROL  R18
	ROL  R19
	ROL  R1
	ROL  R26
	ROL  R27
	ROL  R24
	ROL  R20
	DEC  R25
	BRNE __DIVF212
	MOVW R30,R18
	MOV  R22,R1
	POP  R20
	POP  R19
	POP  R18
	POP  R17
	TST  R22
	BRMI __DIVF215
	LSL  R21
	ROL  R30
	ROL  R31
	ROL  R22
	DEC  R23
	BRVS __DIVF217
__DIVF215:
	RCALL __ROUND_REPACK
	POP  R21
	RET

__CMPF12:
	TST  R25
	BRMI __CMPF120
	TST  R23
	BRMI __CMPF121
	CP   R25,R23
	BRLO __CMPF122
	BRNE __CMPF121
	CP   R26,R30
	CPC  R27,R31
	CPC  R24,R22
	BRLO __CMPF122
	BREQ __CMPF123
__CMPF121:
	CLZ
	CLC
	RET
__CMPF122:
	CLZ
	SEC
	RET
__CMPF123:
	SEZ
	CLC
	RET
__CMPF120:
	TST  R23
	BRPL __CMPF122
	CP   R25,R23
	BRLO __CMPF121
	BRNE __CMPF122
	CP   R30,R26
	CPC  R31,R27
	CPC  R22,R24
	BRLO __CMPF122
	BREQ __CMPF123
	RJMP __CMPF121

__ANEGW1:
	NEG  R31
	NEG  R30
	SBCI R31,0
	RET

__ANEGD1:
	COM  R31
	COM  R22
	COM  R23
	NEG  R30
	SBCI R31,-1
	SBCI R22,-1
	SBCI R23,-1
	RET

__LSLB12:
	TST  R30
	MOV  R0,R30
	MOV  R30,R26
	BREQ __LSLB12R
__LSLB12L:
	LSL  R30
	DEC  R0
	BRNE __LSLB12L
__LSLB12R:
	RET

__LSLW2:
	LSL  R30
	ROL  R31
	LSL  R30
	ROL  R31
	RET

__ASRW2:
	ASR  R31
	ROR  R30
	ASR  R31
	ROR  R30
	RET

__CWD1:
	MOV  R22,R31
	ADD  R22,R22
	SBC  R22,R22
	MOV  R23,R22
	RET

__MULW12U:
	MUL  R31,R26
	MOV  R31,R0
	MUL  R30,R27
	ADD  R31,R0
	MUL  R30,R26
	MOV  R30,R0
	ADD  R31,R1
	RET

__MULW12:
	RCALL __CHKSIGNW
	RCALL __MULW12U
	BRTC __MULW121
	RCALL __ANEGW1
__MULW121:
	RET

__DIVW21U:
	CLR  R0
	CLR  R1
	LDI  R25,16
__DIVW21U1:
	LSL  R26
	ROL  R27
	ROL  R0
	ROL  R1
	SUB  R0,R30
	SBC  R1,R31
	BRCC __DIVW21U2
	ADD  R0,R30
	ADC  R1,R31
	RJMP __DIVW21U3
__DIVW21U2:
	SBR  R26,1
__DIVW21U3:
	DEC  R25
	BRNE __DIVW21U1
	MOVW R30,R26
	MOVW R26,R0
	RET

__DIVW21:
	RCALL __CHKSIGNW
	RCALL __DIVW21U
	BRTC __DIVW211
	RCALL __ANEGW1
__DIVW211:
	RET

__CHKSIGNW:
	CLT
	SBRS R31,7
	RJMP __CHKSW1
	RCALL __ANEGW1
	SET
__CHKSW1:
	SBRS R27,7
	RJMP __CHKSW2
	COM  R26
	COM  R27
	ADIW R26,1
	BLD  R0,0
	INC  R0
	BST  R0,0
__CHKSW2:
	RET

__GETW1P:
	LD   R30,X+
	LD   R31,X
	SBIW R26,1
	RET

__GETD1S0:
	LD   R30,Y
	LDD  R31,Y+1
	LDD  R22,Y+2
	LDD  R23,Y+3
	RET

__GETD2S0:
	LD   R26,Y
	LDD  R27,Y+1
	LDD  R24,Y+2
	LDD  R25,Y+3
	RET

__PUTD1S0:
	ST   Y,R30
	STD  Y+1,R31
	STD  Y+2,R22
	STD  Y+3,R23
	RET

__PUTPARD2:
	ST   -Y,R25
	ST   -Y,R24
	ST   -Y,R27
	ST   -Y,R26
	RET

__SWAPD12:
	MOV  R1,R24
	MOV  R24,R22
	MOV  R22,R1
	MOV  R1,R25
	MOV  R25,R23
	MOV  R23,R1

__SWAPW12:
	MOV  R1,R27
	MOV  R27,R31
	MOV  R31,R1

__SWAPB12:
	MOV  R1,R26
	MOV  R26,R30
	MOV  R30,R1
	RET

__CPW02:
	CLR  R0
	CP   R0,R26
	CPC  R0,R27
	RET

__SAVELOCR6:
	ST   -Y,R21
__SAVELOCR5:
	ST   -Y,R20
__SAVELOCR4:
	ST   -Y,R19
__SAVELOCR3:
	ST   -Y,R18
__SAVELOCR2:
	ST   -Y,R17
	ST   -Y,R16
	RET

__LOADLOCR6:
	LDD  R21,Y+5
__LOADLOCR5:
	LDD  R20,Y+4
__LOADLOCR4:
	LDD  R19,Y+3
__LOADLOCR3:
	LDD  R18,Y+2
__LOADLOCR2:
	LDD  R17,Y+1
	LD   R16,Y
	RET

;END OF CODE MARKER
__END_OF_CODE:
