
;CodeVisionAVR C Compiler V3.12 Advanced
;(C) Copyright 1998-2014 Pavel Haiduc, HP InfoTech s.r.l.
;http://www.hpinfotech.com

;Build configuration    : Debug
;Chip type              : ATmega16
;Program type           : Application
;Clock frequency        : 8/000000 MHz
;Memory model           : Small
;Optimize for           : Size
;(s)printf features     : int, width
;(s)scanf features      : int, width
;External RAM size      : 0
;Data Stack size        : 256 byte(s)
;Heap size              : 0 byte(s)
;Promote 'char' to 'int': Yes
;'char' is unsigned     : Yes
;8 bit enums            : Yes
;Global 'const' stored in FLASH: Yes
;Enhanced function parameter passing: Yes
;Enhanced core instructions: On
;Automatic register allocation for global variables: On
;Smart register allocation: On

	#define _MODEL_SMALL_

	#pragma AVRPART ADMIN PART_NAME ATmega16
	#pragma AVRPART MEMORY PROG_FLASH 16384
	#pragma AVRPART MEMORY EEPROM 512
	#pragma AVRPART MEMORY INT_SRAM SIZE 1024
	#pragma AVRPART MEMORY INT_SRAM START_ADDR 0x60

	#define CALL_SUPPORTED 1

	.LISTMAC
	.EQU UDRE=0x5
	.EQU RXC=0x7
	.EQU USR=0xB
	.EQU UDR=0xC
	.EQU SPSR=0xE
	.EQU SPDR=0xF
	.EQU EERE=0x0
	.EQU EEWE=0x1
	.EQU EEMWE=0x2
	.EQU EECR=0x1C
	.EQU EEDR=0x1D
	.EQU EEARL=0x1E
	.EQU EEARH=0x1F
	.EQU WDTCR=0x21
	.EQU MCUCR=0x35
	.EQU GICR=0x3B
	.EQU SPL=0x3D
	.EQU SPH=0x3E
	.EQU SREG=0x3F

	.DEF R0X0=R0
	.DEF R0X1=R1
	.DEF R0X2=R2
	.DEF R0X3=R3
	.DEF R0X4=R4
	.DEF R0X5=R5
	.DEF R0X6=R6
	.DEF R0X7=R7
	.DEF R0X8=R8
	.DEF R0X9=R9
	.DEF R0XA=R10
	.DEF R0XB=R11
	.DEF R0XC=R12
	.DEF R0XD=R13
	.DEF R0XE=R14
	.DEF R0XF=R15
	.DEF R0X10=R16
	.DEF R0X11=R17
	.DEF R0X12=R18
	.DEF R0X13=R19
	.DEF R0X14=R20
	.DEF R0X15=R21
	.DEF R0X16=R22
	.DEF R0X17=R23
	.DEF R0X18=R24
	.DEF R0X19=R25
	.DEF R0X1A=R26
	.DEF R0X1B=R27
	.DEF R0X1C=R28
	.DEF R0X1D=R29
	.DEF R0X1E=R30
	.DEF R0X1F=R31

	.EQU __SRAM_START=0x0060
	.EQU __SRAM_END=0x045F
	.EQU __DSTACK_SIZE=0x0100
	.EQU __HEAP_SIZE=0x0000
	.EQU __CLEAR_SRAM_SIZE=__SRAM_END-__SRAM_START+1

	.MACRO __CPD1N
	CPI  R30,LOW(@0)
	LDI  R26,HIGH(@0)
	CPC  R31,R26
	LDI  R26,BYTE3(@0)
	CPC  R22,R26
	LDI  R26,BYTE4(@0)
	CPC  R23,R26
	.ENDM

	.MACRO __CPD2N
	CPI  R26,LOW(@0)
	LDI  R30,HIGH(@0)
	CPC  R27,R30
	LDI  R30,BYTE3(@0)
	CPC  R24,R30
	LDI  R30,BYTE4(@0)
	CPC  R25,R30
	.ENDM

	.MACRO __CPWRR
	CP   R@0,R@2
	CPC  R@1,R@3
	.ENDM

	.MACRO __CPWRN
	CPI  R@0,LOW(@2)
	LDI  R30,HIGH(@2)
	CPC  R@1,R30
	.ENDM

	.MACRO __ADDB1MN
	SUBI R30,LOW(-@0-(@1))
	.ENDM

	.MACRO __ADDB2MN
	SUBI R26,LOW(-@0-(@1))
	.ENDM

	.MACRO __ADDW1MN
	SUBI R30,LOW(-@0-(@1))
	SBCI R31,HIGH(-@0-(@1))
	.ENDM

	.MACRO __ADDW2MN
	SUBI R26,LOW(-@0-(@1))
	SBCI R27,HIGH(-@0-(@1))
	.ENDM

	.MACRO __ADDW1FN
	SUBI R30,LOW(-2*@0-(@1))
	SBCI R31,HIGH(-2*@0-(@1))
	.ENDM

	.MACRO __ADDD1FN
	SUBI R30,LOW(-2*@0-(@1))
	SBCI R31,HIGH(-2*@0-(@1))
	SBCI R22,BYTE3(-2*@0-(@1))
	.ENDM

	.MACRO __ADDD1N
	SUBI R30,LOW(-@0)
	SBCI R31,HIGH(-@0)
	SBCI R22,BYTE3(-@0)
	SBCI R23,BYTE4(-@0)
	.ENDM

	.MACRO __ADDD2N
	SUBI R26,LOW(-@0)
	SBCI R27,HIGH(-@0)
	SBCI R24,BYTE3(-@0)
	SBCI R25,BYTE4(-@0)
	.ENDM

	.MACRO __SUBD1N
	SUBI R30,LOW(@0)
	SBCI R31,HIGH(@0)
	SBCI R22,BYTE3(@0)
	SBCI R23,BYTE4(@0)
	.ENDM

	.MACRO __SUBD2N
	SUBI R26,LOW(@0)
	SBCI R27,HIGH(@0)
	SBCI R24,BYTE3(@0)
	SBCI R25,BYTE4(@0)
	.ENDM

	.MACRO __ANDBMNN
	LDS  R30,@0+(@1)
	ANDI R30,LOW(@2)
	STS  @0+(@1),R30
	.ENDM

	.MACRO __ANDWMNN
	LDS  R30,@0+(@1)
	ANDI R30,LOW(@2)
	STS  @0+(@1),R30
	LDS  R30,@0+(@1)+1
	ANDI R30,HIGH(@2)
	STS  @0+(@1)+1,R30
	.ENDM

	.MACRO __ANDD1N
	ANDI R30,LOW(@0)
	ANDI R31,HIGH(@0)
	ANDI R22,BYTE3(@0)
	ANDI R23,BYTE4(@0)
	.ENDM

	.MACRO __ANDD2N
	ANDI R26,LOW(@0)
	ANDI R27,HIGH(@0)
	ANDI R24,BYTE3(@0)
	ANDI R25,BYTE4(@0)
	.ENDM

	.MACRO __ORBMNN
	LDS  R30,@0+(@1)
	ORI  R30,LOW(@2)
	STS  @0+(@1),R30
	.ENDM

	.MACRO __ORWMNN
	LDS  R30,@0+(@1)
	ORI  R30,LOW(@2)
	STS  @0+(@1),R30
	LDS  R30,@0+(@1)+1
	ORI  R30,HIGH(@2)
	STS  @0+(@1)+1,R30
	.ENDM

	.MACRO __ORD1N
	ORI  R30,LOW(@0)
	ORI  R31,HIGH(@0)
	ORI  R22,BYTE3(@0)
	ORI  R23,BYTE4(@0)
	.ENDM

	.MACRO __ORD2N
	ORI  R26,LOW(@0)
	ORI  R27,HIGH(@0)
	ORI  R24,BYTE3(@0)
	ORI  R25,BYTE4(@0)
	.ENDM

	.MACRO __DELAY_USB
	LDI  R24,LOW(@0)
__DELAY_USB_LOOP:
	DEC  R24
	BRNE __DELAY_USB_LOOP
	.ENDM

	.MACRO __DELAY_USW
	LDI  R24,LOW(@0)
	LDI  R25,HIGH(@0)
__DELAY_USW_LOOP:
	SBIW R24,1
	BRNE __DELAY_USW_LOOP
	.ENDM

	.MACRO __GETD1S
	LDD  R30,Y+@0
	LDD  R31,Y+@0+1
	LDD  R22,Y+@0+2
	LDD  R23,Y+@0+3
	.ENDM

	.MACRO __GETD2S
	LDD  R26,Y+@0
	LDD  R27,Y+@0+1
	LDD  R24,Y+@0+2
	LDD  R25,Y+@0+3
	.ENDM

	.MACRO __PUTD1S
	STD  Y+@0,R30
	STD  Y+@0+1,R31
	STD  Y+@0+2,R22
	STD  Y+@0+3,R23
	.ENDM

	.MACRO __PUTD2S
	STD  Y+@0,R26
	STD  Y+@0+1,R27
	STD  Y+@0+2,R24
	STD  Y+@0+3,R25
	.ENDM

	.MACRO __PUTDZ2
	STD  Z+@0,R26
	STD  Z+@0+1,R27
	STD  Z+@0+2,R24
	STD  Z+@0+3,R25
	.ENDM

	.MACRO __CLRD1S
	STD  Y+@0,R30
	STD  Y+@0+1,R30
	STD  Y+@0+2,R30
	STD  Y+@0+3,R30
	.ENDM

	.MACRO __POINTB1MN
	LDI  R30,LOW(@0+(@1))
	.ENDM

	.MACRO __POINTW1MN
	LDI  R30,LOW(@0+(@1))
	LDI  R31,HIGH(@0+(@1))
	.ENDM

	.MACRO __POINTD1M
	LDI  R30,LOW(@0)
	LDI  R31,HIGH(@0)
	LDI  R22,BYTE3(@0)
	LDI  R23,BYTE4(@0)
	.ENDM

	.MACRO __POINTW1FN
	LDI  R30,LOW(2*@0+(@1))
	LDI  R31,HIGH(2*@0+(@1))
	.ENDM

	.MACRO __POINTD1FN
	LDI  R30,LOW(2*@0+(@1))
	LDI  R31,HIGH(2*@0+(@1))
	LDI  R22,BYTE3(2*@0+(@1))
	LDI  R23,BYTE4(2*@0+(@1))
	.ENDM

	.MACRO __POINTB2MN
	LDI  R26,LOW(@0+(@1))
	.ENDM

	.MACRO __POINTW2MN
	LDI  R26,LOW(@0+(@1))
	LDI  R27,HIGH(@0+(@1))
	.ENDM

	.MACRO __POINTW2FN
	LDI  R26,LOW(2*@0+(@1))
	LDI  R27,HIGH(2*@0+(@1))
	.ENDM

	.MACRO __POINTD2FN
	LDI  R26,LOW(2*@0+(@1))
	LDI  R27,HIGH(2*@0+(@1))
	LDI  R24,BYTE3(2*@0+(@1))
	LDI  R25,BYTE4(2*@0+(@1))
	.ENDM

	.MACRO __POINTBRM
	LDI  R@0,LOW(@1)
	.ENDM

	.MACRO __POINTWRM
	LDI  R@0,LOW(@2)
	LDI  R@1,HIGH(@2)
	.ENDM

	.MACRO __POINTBRMN
	LDI  R@0,LOW(@1+(@2))
	.ENDM

	.MACRO __POINTWRMN
	LDI  R@0,LOW(@2+(@3))
	LDI  R@1,HIGH(@2+(@3))
	.ENDM

	.MACRO __POINTWRFN
	LDI  R@0,LOW(@2*2+(@3))
	LDI  R@1,HIGH(@2*2+(@3))
	.ENDM

	.MACRO __GETD1N
	LDI  R30,LOW(@0)
	LDI  R31,HIGH(@0)
	LDI  R22,BYTE3(@0)
	LDI  R23,BYTE4(@0)
	.ENDM

	.MACRO __GETD2N
	LDI  R26,LOW(@0)
	LDI  R27,HIGH(@0)
	LDI  R24,BYTE3(@0)
	LDI  R25,BYTE4(@0)
	.ENDM

	.MACRO __GETB1MN
	LDS  R30,@0+(@1)
	.ENDM

	.MACRO __GETB1HMN
	LDS  R31,@0+(@1)
	.ENDM

	.MACRO __GETW1MN
	LDS  R30,@0+(@1)
	LDS  R31,@0+(@1)+1
	.ENDM

	.MACRO __GETD1MN
	LDS  R30,@0+(@1)
	LDS  R31,@0+(@1)+1
	LDS  R22,@0+(@1)+2
	LDS  R23,@0+(@1)+3
	.ENDM

	.MACRO __GETBRMN
	LDS  R@0,@1+(@2)
	.ENDM

	.MACRO __GETWRMN
	LDS  R@0,@2+(@3)
	LDS  R@1,@2+(@3)+1
	.ENDM

	.MACRO __GETWRZ
	LDD  R@0,Z+@2
	LDD  R@1,Z+@2+1
	.ENDM

	.MACRO __GETD2Z
	LDD  R26,Z+@0
	LDD  R27,Z+@0+1
	LDD  R24,Z+@0+2
	LDD  R25,Z+@0+3
	.ENDM

	.MACRO __GETB2MN
	LDS  R26,@0+(@1)
	.ENDM

	.MACRO __GETW2MN
	LDS  R26,@0+(@1)
	LDS  R27,@0+(@1)+1
	.ENDM

	.MACRO __GETD2MN
	LDS  R26,@0+(@1)
	LDS  R27,@0+(@1)+1
	LDS  R24,@0+(@1)+2
	LDS  R25,@0+(@1)+3
	.ENDM

	.MACRO __PUTB1MN
	STS  @0+(@1),R30
	.ENDM

	.MACRO __PUTW1MN
	STS  @0+(@1),R30
	STS  @0+(@1)+1,R31
	.ENDM

	.MACRO __PUTD1MN
	STS  @0+(@1),R30
	STS  @0+(@1)+1,R31
	STS  @0+(@1)+2,R22
	STS  @0+(@1)+3,R23
	.ENDM

	.MACRO __PUTB1EN
	LDI  R26,LOW(@0+(@1))
	LDI  R27,HIGH(@0+(@1))
	CALL __EEPROMWRB
	.ENDM

	.MACRO __PUTW1EN
	LDI  R26,LOW(@0+(@1))
	LDI  R27,HIGH(@0+(@1))
	CALL __EEPROMWRW
	.ENDM

	.MACRO __PUTD1EN
	LDI  R26,LOW(@0+(@1))
	LDI  R27,HIGH(@0+(@1))
	CALL __EEPROMWRD
	.ENDM

	.MACRO __PUTBR0MN
	STS  @0+(@1),R0
	.ENDM

	.MACRO __PUTBMRN
	STS  @0+(@1),R@2
	.ENDM

	.MACRO __PUTWMRN
	STS  @0+(@1),R@2
	STS  @0+(@1)+1,R@3
	.ENDM

	.MACRO __PUTBZR
	STD  Z+@1,R@0
	.ENDM

	.MACRO __PUTWZR
	STD  Z+@2,R@0
	STD  Z+@2+1,R@1
	.ENDM

	.MACRO __GETW1R
	MOV  R30,R@0
	MOV  R31,R@1
	.ENDM

	.MACRO __GETW2R
	MOV  R26,R@0
	MOV  R27,R@1
	.ENDM

	.MACRO __GETWRN
	LDI  R@0,LOW(@2)
	LDI  R@1,HIGH(@2)
	.ENDM

	.MACRO __PUTW1R
	MOV  R@0,R30
	MOV  R@1,R31
	.ENDM

	.MACRO __PUTW2R
	MOV  R@0,R26
	MOV  R@1,R27
	.ENDM

	.MACRO __ADDWRN
	SUBI R@0,LOW(-@2)
	SBCI R@1,HIGH(-@2)
	.ENDM

	.MACRO __ADDWRR
	ADD  R@0,R@2
	ADC  R@1,R@3
	.ENDM

	.MACRO __SUBWRN
	SUBI R@0,LOW(@2)
	SBCI R@1,HIGH(@2)
	.ENDM

	.MACRO __SUBWRR
	SUB  R@0,R@2
	SBC  R@1,R@3
	.ENDM

	.MACRO __ANDWRN
	ANDI R@0,LOW(@2)
	ANDI R@1,HIGH(@2)
	.ENDM

	.MACRO __ANDWRR
	AND  R@0,R@2
	AND  R@1,R@3
	.ENDM

	.MACRO __ORWRN
	ORI  R@0,LOW(@2)
	ORI  R@1,HIGH(@2)
	.ENDM

	.MACRO __ORWRR
	OR   R@0,R@2
	OR   R@1,R@3
	.ENDM

	.MACRO __EORWRR
	EOR  R@0,R@2
	EOR  R@1,R@3
	.ENDM

	.MACRO __GETWRS
	LDD  R@0,Y+@2
	LDD  R@1,Y+@2+1
	.ENDM

	.MACRO __PUTBSR
	STD  Y+@1,R@0
	.ENDM

	.MACRO __PUTWSR
	STD  Y+@2,R@0
	STD  Y+@2+1,R@1
	.ENDM

	.MACRO __MOVEWRR
	MOV  R@0,R@2
	MOV  R@1,R@3
	.ENDM

	.MACRO __INWR
	IN   R@0,@2
	IN   R@1,@2+1
	.ENDM

	.MACRO __OUTWR
	OUT  @2+1,R@1
	OUT  @2,R@0
	.ENDM

	.MACRO __CALL1MN
	LDS  R30,@0+(@1)
	LDS  R31,@0+(@1)+1
	ICALL
	.ENDM

	.MACRO __CALL1FN
	LDI  R30,LOW(2*@0+(@1))
	LDI  R31,HIGH(2*@0+(@1))
	CALL __GETW1PF
	ICALL
	.ENDM

	.MACRO __CALL2EN
	PUSH R26
	PUSH R27
	LDI  R26,LOW(@0+(@1))
	LDI  R27,HIGH(@0+(@1))
	CALL __EEPROMRDW
	POP  R27
	POP  R26
	ICALL
	.ENDM

	.MACRO __CALL2EX
	SUBI R26,LOW(-@0)
	SBCI R27,HIGH(-@0)
	CALL __EEPROMRDD
	ICALL
	.ENDM

	.MACRO __GETW1STACK
	IN   R30,SPL
	IN   R31,SPH
	ADIW R30,@0+1
	LD   R0,Z+
	LD   R31,Z
	MOV  R30,R0
	.ENDM

	.MACRO __GETD1STACK
	IN   R30,SPL
	IN   R31,SPH
	ADIW R30,@0+1
	LD   R0,Z+
	LD   R1,Z+
	LD   R22,Z
	MOVW R30,R0
	.ENDM

	.MACRO __NBST
	BST  R@0,@1
	IN   R30,SREG
	LDI  R31,0x40
	EOR  R30,R31
	OUT  SREG,R30
	.ENDM


	.MACRO __PUTB1SN
	LDD  R26,Y+@0
	LDD  R27,Y+@0+1
	SUBI R26,LOW(-@1)
	SBCI R27,HIGH(-@1)
	ST   X,R30
	.ENDM

	.MACRO __PUTW1SN
	LDD  R26,Y+@0
	LDD  R27,Y+@0+1
	SUBI R26,LOW(-@1)
	SBCI R27,HIGH(-@1)
	ST   X+,R30
	ST   X,R31
	.ENDM

	.MACRO __PUTD1SN
	LDD  R26,Y+@0
	LDD  R27,Y+@0+1
	SUBI R26,LOW(-@1)
	SBCI R27,HIGH(-@1)
	CALL __PUTDP1
	.ENDM

	.MACRO __PUTB1SNS
	LDD  R26,Y+@0
	LDD  R27,Y+@0+1
	ADIW R26,@1
	ST   X,R30
	.ENDM

	.MACRO __PUTW1SNS
	LDD  R26,Y+@0
	LDD  R27,Y+@0+1
	ADIW R26,@1
	ST   X+,R30
	ST   X,R31
	.ENDM

	.MACRO __PUTD1SNS
	LDD  R26,Y+@0
	LDD  R27,Y+@0+1
	ADIW R26,@1
	CALL __PUTDP1
	.ENDM

	.MACRO __PUTB1PMN
	LDS  R26,@0
	LDS  R27,@0+1
	SUBI R26,LOW(-@1)
	SBCI R27,HIGH(-@1)
	ST   X,R30
	.ENDM

	.MACRO __PUTW1PMN
	LDS  R26,@0
	LDS  R27,@0+1
	SUBI R26,LOW(-@1)
	SBCI R27,HIGH(-@1)
	ST   X+,R30
	ST   X,R31
	.ENDM

	.MACRO __PUTD1PMN
	LDS  R26,@0
	LDS  R27,@0+1
	SUBI R26,LOW(-@1)
	SBCI R27,HIGH(-@1)
	CALL __PUTDP1
	.ENDM

	.MACRO __PUTB1PMNS
	LDS  R26,@0
	LDS  R27,@0+1
	ADIW R26,@1
	ST   X,R30
	.ENDM

	.MACRO __PUTW1PMNS
	LDS  R26,@0
	LDS  R27,@0+1
	ADIW R26,@1
	ST   X+,R30
	ST   X,R31
	.ENDM

	.MACRO __PUTD1PMNS
	LDS  R26,@0
	LDS  R27,@0+1
	ADIW R26,@1
	CALL __PUTDP1
	.ENDM

	.MACRO __PUTB1RN
	MOVW R26,R@0
	SUBI R26,LOW(-@1)
	SBCI R27,HIGH(-@1)
	ST   X,R30
	.ENDM

	.MACRO __PUTW1RN
	MOVW R26,R@0
	SUBI R26,LOW(-@1)
	SBCI R27,HIGH(-@1)
	ST   X+,R30
	ST   X,R31
	.ENDM

	.MACRO __PUTD1RN
	MOVW R26,R@0
	SUBI R26,LOW(-@1)
	SBCI R27,HIGH(-@1)
	CALL __PUTDP1
	.ENDM

	.MACRO __PUTB1RNS
	MOVW R26,R@0
	ADIW R26,@1
	ST   X,R30
	.ENDM

	.MACRO __PUTW1RNS
	MOVW R26,R@0
	ADIW R26,@1
	ST   X+,R30
	ST   X,R31
	.ENDM

	.MACRO __PUTD1RNS
	MOVW R26,R@0
	ADIW R26,@1
	CALL __PUTDP1
	.ENDM

	.MACRO __PUTB1RON
	MOV  R26,R@0
	MOV  R27,R@1
	SUBI R26,LOW(-@2)
	SBCI R27,HIGH(-@2)
	ST   X,R30
	.ENDM

	.MACRO __PUTW1RON
	MOV  R26,R@0
	MOV  R27,R@1
	SUBI R26,LOW(-@2)
	SBCI R27,HIGH(-@2)
	ST   X+,R30
	ST   X,R31
	.ENDM

	.MACRO __PUTD1RON
	MOV  R26,R@0
	MOV  R27,R@1
	SUBI R26,LOW(-@2)
	SBCI R27,HIGH(-@2)
	CALL __PUTDP1
	.ENDM

	.MACRO __PUTB1RONS
	MOV  R26,R@0
	MOV  R27,R@1
	ADIW R26,@2
	ST   X,R30
	.ENDM

	.MACRO __PUTW1RONS
	MOV  R26,R@0
	MOV  R27,R@1
	ADIW R26,@2
	ST   X+,R30
	ST   X,R31
	.ENDM

	.MACRO __PUTD1RONS
	MOV  R26,R@0
	MOV  R27,R@1
	ADIW R26,@2
	CALL __PUTDP1
	.ENDM


	.MACRO __GETB1SX
	MOVW R30,R28
	SUBI R30,LOW(-@0)
	SBCI R31,HIGH(-@0)
	LD   R30,Z
	.ENDM

	.MACRO __GETB1HSX
	MOVW R30,R28
	SUBI R30,LOW(-@0)
	SBCI R31,HIGH(-@0)
	LD   R31,Z
	.ENDM

	.MACRO __GETW1SX
	MOVW R30,R28
	SUBI R30,LOW(-@0)
	SBCI R31,HIGH(-@0)
	LD   R0,Z+
	LD   R31,Z
	MOV  R30,R0
	.ENDM

	.MACRO __GETD1SX
	MOVW R30,R28
	SUBI R30,LOW(-@0)
	SBCI R31,HIGH(-@0)
	LD   R0,Z+
	LD   R1,Z+
	LD   R22,Z+
	LD   R23,Z
	MOVW R30,R0
	.ENDM

	.MACRO __GETB2SX
	MOVW R26,R28
	SUBI R26,LOW(-@0)
	SBCI R27,HIGH(-@0)
	LD   R26,X
	.ENDM

	.MACRO __GETW2SX
	MOVW R26,R28
	SUBI R26,LOW(-@0)
	SBCI R27,HIGH(-@0)
	LD   R0,X+
	LD   R27,X
	MOV  R26,R0
	.ENDM

	.MACRO __GETD2SX
	MOVW R26,R28
	SUBI R26,LOW(-@0)
	SBCI R27,HIGH(-@0)
	LD   R0,X+
	LD   R1,X+
	LD   R24,X+
	LD   R25,X
	MOVW R26,R0
	.ENDM

	.MACRO __GETBRSX
	MOVW R30,R28
	SUBI R30,LOW(-@1)
	SBCI R31,HIGH(-@1)
	LD   R@0,Z
	.ENDM

	.MACRO __GETWRSX
	MOVW R30,R28
	SUBI R30,LOW(-@2)
	SBCI R31,HIGH(-@2)
	LD   R@0,Z+
	LD   R@1,Z
	.ENDM

	.MACRO __GETBRSX2
	MOVW R26,R28
	SUBI R26,LOW(-@1)
	SBCI R27,HIGH(-@1)
	LD   R@0,X
	.ENDM

	.MACRO __GETWRSX2
	MOVW R26,R28
	SUBI R26,LOW(-@2)
	SBCI R27,HIGH(-@2)
	LD   R@0,X+
	LD   R@1,X
	.ENDM

	.MACRO __LSLW8SX
	MOVW R30,R28
	SUBI R30,LOW(-@0)
	SBCI R31,HIGH(-@0)
	LD   R31,Z
	CLR  R30
	.ENDM

	.MACRO __PUTB1SX
	MOVW R26,R28
	SUBI R26,LOW(-@0)
	SBCI R27,HIGH(-@0)
	ST   X,R30
	.ENDM

	.MACRO __PUTW1SX
	MOVW R26,R28
	SUBI R26,LOW(-@0)
	SBCI R27,HIGH(-@0)
	ST   X+,R30
	ST   X,R31
	.ENDM

	.MACRO __PUTD1SX
	MOVW R26,R28
	SUBI R26,LOW(-@0)
	SBCI R27,HIGH(-@0)
	ST   X+,R30
	ST   X+,R31
	ST   X+,R22
	ST   X,R23
	.ENDM

	.MACRO __CLRW1SX
	MOVW R26,R28
	SUBI R26,LOW(-@0)
	SBCI R27,HIGH(-@0)
	ST   X+,R30
	ST   X,R30
	.ENDM

	.MACRO __CLRD1SX
	MOVW R26,R28
	SUBI R26,LOW(-@0)
	SBCI R27,HIGH(-@0)
	ST   X+,R30
	ST   X+,R30
	ST   X+,R30
	ST   X,R30
	.ENDM

	.MACRO __PUTB2SX
	MOVW R30,R28
	SUBI R30,LOW(-@0)
	SBCI R31,HIGH(-@0)
	ST   Z,R26
	.ENDM

	.MACRO __PUTW2SX
	MOVW R30,R28
	SUBI R30,LOW(-@0)
	SBCI R31,HIGH(-@0)
	ST   Z+,R26
	ST   Z,R27
	.ENDM

	.MACRO __PUTD2SX
	MOVW R30,R28
	SUBI R30,LOW(-@0)
	SBCI R31,HIGH(-@0)
	ST   Z+,R26
	ST   Z+,R27
	ST   Z+,R24
	ST   Z,R25
	.ENDM

	.MACRO __PUTBSRX
	MOVW R30,R28
	SUBI R30,LOW(-@1)
	SBCI R31,HIGH(-@1)
	ST   Z,R@0
	.ENDM

	.MACRO __PUTWSRX
	MOVW R30,R28
	SUBI R30,LOW(-@2)
	SBCI R31,HIGH(-@2)
	ST   Z+,R@0
	ST   Z,R@1
	.ENDM

	.MACRO __PUTB1SNX
	MOVW R26,R28
	SUBI R26,LOW(-@0)
	SBCI R27,HIGH(-@0)
	LD   R0,X+
	LD   R27,X
	MOV  R26,R0
	SUBI R26,LOW(-@1)
	SBCI R27,HIGH(-@1)
	ST   X,R30
	.ENDM

	.MACRO __PUTW1SNX
	MOVW R26,R28
	SUBI R26,LOW(-@0)
	SBCI R27,HIGH(-@0)
	LD   R0,X+
	LD   R27,X
	MOV  R26,R0
	SUBI R26,LOW(-@1)
	SBCI R27,HIGH(-@1)
	ST   X+,R30
	ST   X,R31
	.ENDM

	.MACRO __PUTD1SNX
	MOVW R26,R28
	SUBI R26,LOW(-@0)
	SBCI R27,HIGH(-@0)
	LD   R0,X+
	LD   R27,X
	MOV  R26,R0
	SUBI R26,LOW(-@1)
	SBCI R27,HIGH(-@1)
	ST   X+,R30
	ST   X+,R31
	ST   X+,R22
	ST   X,R23
	.ENDM

	.MACRO __MULBRR
	MULS R@0,R@1
	MOVW R30,R0
	.ENDM

	.MACRO __MULBRRU
	MUL  R@0,R@1
	MOVW R30,R0
	.ENDM

	.MACRO __MULBRR0
	MULS R@0,R@1
	.ENDM

	.MACRO __MULBRRU0
	MUL  R@0,R@1
	.ENDM

	.MACRO __MULBNWRU
	LDI  R26,@2
	MUL  R26,R@0
	MOVW R30,R0
	MUL  R26,R@1
	ADD  R31,R0
	.ENDM

;NAME DEFINITIONS FOR GLOBAL VARIABLES ALLOCATED TO REGISTERS
	.DEF _temp=R4
	.DEF _temp_msb=R5
	.DEF _rpm=R6
	.DEF _rpm_msb=R7
	.DEF _dir=R8
	.DEF _dir_msb=R9
	.DEF _speed=R10
	.DEF _speed_msb=R11
	.DEF _duty_cycle=R12
	.DEF _duty_cycle_msb=R13

	.CSEG
	.ORG 0x00

;START OF CODE MARKER
__START_OF_CODE:

;INTERRUPT VECTORS
	JMP  __RESET
	JMP  0x00
	JMP  0x00
	JMP  0x00
	JMP  _timer2_ovf_isr
	JMP  0x00
	JMP  0x00
	JMP  0x00
	JMP  0x00
	JMP  _timer0_ovf_isr
	JMP  0x00
	JMP  0x00
	JMP  0x00
	JMP  0x00
	JMP  0x00
	JMP  0x00
	JMP  0x00
	JMP  0x00
	JMP  0x00
	JMP  0x00
	JMP  0x00

_tbl10_G101:
	.DB  0x10,0x27,0xE8,0x3,0x64,0x0,0xA,0x0
	.DB  0x1,0x0
_tbl16_G101:
	.DB  0x0,0x10,0x0,0x1,0x10,0x0,0x1,0x0

;GLOBAL REGISTER VARIABLES INITIALIZATION
__REG_VARS:
	.DB  0x1,0x0,0x0,0x0
	.DB  0x1,0x0,0x0,0x0
	.DB  0xA,0x0

_0x3:
	.DB  0x1
_0x4:
	.DB  0x1
_0x40000:
	.DB  0x25,0x64,0x0,0x52,0x50,0x4D,0x3A,0x0
_0x60000:
	.DB  0x31,0x0,0x25,0x64,0x0,0x72,0x70,0x6D
	.DB  0x0
_0x2000003:
	.DB  0x80,0xC0
_0x20A0060:
	.DB  0x1
_0x20A0000:
	.DB  0x2D,0x4E,0x41,0x4E,0x0,0x49,0x4E,0x46
	.DB  0x0

__GLOBAL_INI_TBL:
	.DW  0x0A
	.DW  0x04
	.DW  __REG_VARS*2

	.DW  0x01
	.DW  _temp_counter
	.DW  _0x3*2

	.DW  0x01
	.DW  _direction
	.DW  _0x4*2

	.DW  0x05
	.DW  _0x4005D
	.DW  _0x40000*2+3

	.DW  0x02
	.DW  _0x60003
	.DW  _0x60000*2

	.DW  0x04
	.DW  _0x6005E
	.DW  _0x60000*2+5

	.DW  0x02
	.DW  __base_y_G100
	.DW  _0x2000003*2

	.DW  0x01
	.DW  __seed_G105
	.DW  _0x20A0060*2

_0xFFFFFFFF:
	.DW  0

#define __GLOBAL_INI_TBL_PRESENT 1

__RESET:
	CLI
	CLR  R30
	OUT  EECR,R30

;INTERRUPT VECTORS ARE PLACED
;AT THE START OF FLASH
	LDI  R31,1
	OUT  GICR,R31
	OUT  GICR,R30
	OUT  MCUCR,R30

;CLEAR R2-R14
	LDI  R24,(14-2)+1
	LDI  R26,2
	CLR  R27
__CLEAR_REG:
	ST   X+,R30
	DEC  R24
	BRNE __CLEAR_REG

;CLEAR SRAM
	LDI  R24,LOW(__CLEAR_SRAM_SIZE)
	LDI  R25,HIGH(__CLEAR_SRAM_SIZE)
	LDI  R26,__SRAM_START
__CLEAR_SRAM:
	ST   X+,R30
	SBIW R24,1
	BRNE __CLEAR_SRAM

;GLOBAL VARIABLES INITIALIZATION
	LDI  R30,LOW(__GLOBAL_INI_TBL*2)
	LDI  R31,HIGH(__GLOBAL_INI_TBL*2)
__GLOBAL_INI_NEXT:
	LPM  R24,Z+
	LPM  R25,Z+
	SBIW R24,0
	BREQ __GLOBAL_INI_END
	LPM  R26,Z+
	LPM  R27,Z+
	LPM  R0,Z+
	LPM  R1,Z+
	MOVW R22,R30
	MOVW R30,R0
__GLOBAL_INI_LOOP:
	LPM  R0,Z+
	ST   X+,R0
	SBIW R24,1
	BRNE __GLOBAL_INI_LOOP
	MOVW R30,R22
	RJMP __GLOBAL_INI_NEXT
__GLOBAL_INI_END:

;HARDWARE STACK POINTER INITIALIZATION
	LDI  R30,LOW(__SRAM_END-__HEAP_SIZE)
	OUT  SPL,R30
	LDI  R30,HIGH(__SRAM_END-__HEAP_SIZE)
	OUT  SPH,R30

;DATA STACK POINTER INITIALIZATION
	LDI  R28,LOW(__SRAM_START+__DSTACK_SIZE)
	LDI  R29,HIGH(__SRAM_START+__DSTACK_SIZE)

	JMP  _main

	.ESEG
	.ORG 0

	.DSEG
	.ORG 0x160

	.CSEG
;/*******************************************************
;This program was created by the
;CodeWizardAVR V3.12 Advanced
;Automatic Program Generator
;© Copyright 1998-2014 Pavel Haiduc, HP InfoTech s.r.l.
;http://www.hpinfotech.com
;
;Project :
;Version :
;Date    : 10/04/2022
;Author  :
;Company :
;Comments:
;
;
;Chip type               : ATmega16
;Program type            : Application
;AVR Core Clock frequency: 8/000000 MHz
;Memory model            : Small
;External RAM size       : 0
;Data Stack size         : 256
;*******************************************************/
;
;#include <headers.h>
	#ifndef __SLEEP_DEFINED__
	#define __SLEEP_DEFINED__
	.EQU __se_bit=0x40
	.EQU __sm_mask=0xB0
	.EQU __sm_powerdown=0x20
	.EQU __sm_powersave=0x30
	.EQU __sm_standby=0xA0
	.EQU __sm_ext_standby=0xB0
	.EQU __sm_adc_noise_red=0x10
	.SET power_ctrl_reg=mcucr
	#endif
;
;
;int temp = 1;
;int rpm = 0;
;int dir = 1;
;int speed = 0;
;char lcd_str[16];
;
;int duty_cycle = 10;
;int temp_counter = 1;

	.DSEG
;int rpm_counter = 0;
;int direction = 1;
;
;char temp_str[17];
;// Timer 0 overflow interrupt service routine
;interrupt [TIM0_OVF] void timer0_ovf_isr(void)
; 0000 0029 {

	.CSEG
_timer0_ovf_isr:
; .FSTART _timer0_ovf_isr
	CALL SUBOPT_0x0
; 0000 002A // Place your code here
; 0000 002B     func3_6();
	CALL _func3_6
; 0000 002C }
	RJMP _0x9
; .FEND
;
;// Timer2 overflow interrupt service routine
;interrupt [TIM2_OVF] void timer2_ovf_isr(void)
; 0000 0030 {
_timer2_ovf_isr:
; .FSTART _timer2_ovf_isr
	CALL SUBOPT_0x0
; 0000 0031     // Reinitialize Timer2 value
; 0000 0032     TCNT2=0xB2;
	LDI  R30,LOW(178)
	OUT  0x24,R30
; 0000 0033     // Place your code here
; 0000 0034     func5_6();
	CALL _func5_6
; 0000 0035 
; 0000 0036 }
_0x9:
	LD   R30,Y+
	OUT  SREG,R30
	LD   R31,Y+
	LD   R30,Y+
	LD   R27,Y+
	LD   R26,Y+
	LD   R25,Y+
	LD   R24,Y+
	LD   R23,Y+
	LD   R22,Y+
	LD   R15,Y+
	LD   R1,Y+
	LD   R0,Y+
	RETI
; .FEND
;
;
;// Declare your global variables here
;
;void main(void)
; 0000 003C {
_main:
; .FSTART _main
; 0000 003D 
; 0000 003E init_timer_ports_6();
	CALL _init_timer_ports_6
; 0000 003F func4_1();
	RCALL _func4_1
; 0000 0040 lcd_init(16);
	LDI  R26,LOW(16)
	CALL _lcd_init
; 0000 0041 
; 0000 0042 
; 0000 0043 while (1)
_0x5:
; 0000 0044       {
; 0000 0045       // Place your code here
; 0000 0046 
; 0000 0047       }
	RJMP _0x5
; 0000 0048 }
_0x8:
	RJMP _0x8
; .FEND
;#include <math.h>
;#include <mega16.h>
	#ifndef __SLEEP_DEFINED__
	#define __SLEEP_DEFINED__
	.EQU __se_bit=0x40
	.EQU __sm_mask=0xB0
	.EQU __sm_powerdown=0x20
	.EQU __sm_powersave=0x30
	.EQU __sm_standby=0xA0
	.EQU __sm_ext_standby=0xB0
	.EQU __sm_adc_noise_red=0x10
	.SET power_ctrl_reg=mcucr
	#endif
;
;void func4_1(void){
; 0001 0004 void func4_1(void){

	.CSEG
_func4_1:
; .FSTART _func4_1
; 0001 0005     int duty_cycle = 0;
; 0001 0006     DDRA = 0x00;
	ST   -Y,R17
	ST   -Y,R16
;	duty_cycle -> R16,R17
	__GETWRN 16,17,0
	LDI  R30,LOW(0)
	OUT  0x1A,R30
; 0001 0007     duty_cycle = PINA;
	IN   R16,25
	CLR  R17
; 0001 0008     duty_cycle = ((duty_cycle*90)/255) + 5;
	MOVW R30,R16
	CALL SUBOPT_0x1
	MOVW R16,R30
; 0001 0009     duty_cycle = floor((duty_cycle*255)/100);
	CALL SUBOPT_0x2
	MOVW R16,R30
; 0001 000A     OCR0 = duty_cycle;
	OUT  0x3C,R16
; 0001 000B }
	LD   R16,Y+
	LD   R17,Y+
	RET
; .FEND
;#include <var5.h>
;#include <mega16.h>
	#ifndef __SLEEP_DEFINED__
	#define __SLEEP_DEFINED__
	.EQU __se_bit=0x40
	.EQU __sm_mask=0xB0
	.EQU __sm_powerdown=0x20
	.EQU __sm_powersave=0x30
	.EQU __sm_standby=0xA0
	.EQU __sm_ext_standby=0xB0
	.EQU __sm_adc_noise_red=0x10
	.SET power_ctrl_reg=mcucr
	#endif
;#include <stdio.h>
;#include <alcd.h>
;
;
;void func5_1(void){
; 0002 0007 void func5_1(void){

	.CSEG
; 0002 0008     if (rpm<=100){
; 0002 0009         if (dir == 1 ){
; 0002 000A             if (temp == 1) {
; 0002 000B                 PORTB.4 = 1;
; 0002 000C                 PORTB.5 = 0;
; 0002 000D                 PORTB.6 = 0;
; 0002 000E                 PORTB.7 = 0;
; 0002 000F                 temp ++ ;
; 0002 0010             }
; 0002 0011             if (temp == 2) {
; 0002 0012                 PORTB.4 = 0;
; 0002 0013                 PORTB.5 = 1;
; 0002 0014                 PORTB.6 = 0;
; 0002 0015                 PORTB.7 = 0;
; 0002 0016                 temp ++ ;
; 0002 0017             }
; 0002 0018             if (temp == 3) {
; 0002 0019                 PORTB.4 = 0;
; 0002 001A                 PORTB.5 = 0;
; 0002 001B                 PORTB.6 = 1;
; 0002 001C                 PORTB.7 = 0;
; 0002 001D                 temp ++ ;
; 0002 001E             }
; 0002 001F             if (temp == 4) {
; 0002 0020                 PORTB.4 = 0;
; 0002 0021                 PORTB.5 = 0;
; 0002 0022                 PORTB.6 = 0;
; 0002 0023                 PORTB.7 = 1;
; 0002 0024                 temp ++ ;
; 0002 0025             }
; 0002 0026 
; 0002 0027             if (temp > 4){
; 0002 0028                 temp=1;
; 0002 0029             }
; 0002 002A         }
; 0002 002B         rpm++;
; 0002 002C     }
; 0002 002D 
; 0002 002E 
; 0002 002F     if (rpm==100){
; 0002 0030            PORTB.4 = 0;
; 0002 0031            PORTB.5 = 0;
; 0002 0032            PORTB.6 = 0;
; 0002 0033            PORTB.7 = 0;
; 0002 0034            dir=0;
; 0002 0035 
; 0002 0036            rpm++;
; 0002 0037     }
; 0002 0038 
; 0002 0039     if (rpm >100 &&  rpm<=200){
; 0002 003A         if (dir == 0 ){
; 0002 003B             if (temp == 1) {
; 0002 003C                 PORTB.4 = 0;
; 0002 003D                 PORTB.5 = 0;
; 0002 003E                 PORTB.6 = 0;
; 0002 003F                 PORTB.7 = 1;
; 0002 0040                 temp ++ ;
; 0002 0041             }
; 0002 0042             if (temp == 2) {
; 0002 0043                 PORTB.4 = 0;
; 0002 0044                 PORTB.5 = 0;
; 0002 0045                 PORTB.6 = 1;
; 0002 0046                 PORTB.7 = 0;
; 0002 0047                 temp ++ ;
; 0002 0048             }
; 0002 0049             if (temp == 3) {
; 0002 004A                 PORTB.4 = 0;
; 0002 004B                 PORTB.5 = 1;
; 0002 004C                 PORTB.6 = 0;
; 0002 004D                 PORTB.7 = 0;
; 0002 004E                 temp ++ ;
; 0002 004F             }
; 0002 0050             if (temp == 4) {
; 0002 0051                 PORTB.4 = 1;
; 0002 0052                 PORTB.5 = 0;
; 0002 0053                 PORTB.6 = 0;
; 0002 0054                 PORTB.7 = 0;
; 0002 0055                 temp ++ ;
; 0002 0056             }
; 0002 0057 
; 0002 0058             if (temp > 4){
; 0002 0059                 temp=1;
; 0002 005A             }
; 0002 005B 
; 0002 005C         }
; 0002 005D         rpm++;
; 0002 005E     }
; 0002 005F 
; 0002 0060     if (rpm>200){
; 0002 0061         rpm=0;
; 0002 0062         dir=1;
; 0002 0063     }
; 0002 0064 
; 0002 0065     speed = 1/(0.01*4)*70;
; 0002 0066     sprintf(lcd_str, "%d", speed);
; 0002 0067     lcd_gotoxy(0, 0);
; 0002 0068     lcd_puts(lcd_str);
; 0002 0069     lcd_gotoxy(6, 0);
; 0002 006A     lcd_puts("RPM:");
; 0002 006B }

	.DSEG
_0x4005D:
	.BYTE 0x5
;#include <var6.h>
;#include <mega16.h>
	#ifndef __SLEEP_DEFINED__
	#define __SLEEP_DEFINED__
	.EQU __se_bit=0x40
	.EQU __sm_mask=0xB0
	.EQU __sm_powerdown=0x20
	.EQU __sm_powersave=0x30
	.EQU __sm_standby=0xA0
	.EQU __sm_ext_standby=0xB0
	.EQU __sm_adc_noise_red=0x10
	.SET power_ctrl_reg=mcucr
	#endif
;#include <alcd.h>
;#include <stdio.h>
;#include <math.h>
;void func3_6(void){
; 0003 0006 void func3_6(void){

	.CSEG
_func3_6:
; .FSTART _func3_6
; 0003 0007     duty_cycle = 0;
	CLR  R12
	CLR  R13
; 0003 0008     DDRA = 0x00;
	LDI  R30,LOW(0)
	OUT  0x1A,R30
; 0003 0009     duty_cycle = PINA;
	IN   R12,25
	CLR  R13
; 0003 000A     duty_cycle = ((duty_cycle*90)/255) + 5;
	MOVW R30,R12
	CALL SUBOPT_0x1
	MOVW R12,R30
; 0003 000B     duty_cycle = floor((duty_cycle*255)/100);
	CALL SUBOPT_0x2
	MOVW R12,R30
; 0003 000C     OCR0 = duty_cycle;
	OUT  0x3C,R12
; 0003 000D     lcd_gotoxy(1,0);
	LDI  R30,LOW(1)
	CALL SUBOPT_0x3
; 0003 000E     lcd_puts("1");
	__POINTW2MN _0x60003,0
	RJMP _0x20C0004
; 0003 000F }
; .FEND

	.DSEG
_0x60003:
	.BYTE 0x2
;
;void func5_6(void){
; 0003 0011 void func5_6(void){

	.CSEG
_func5_6:
; .FSTART _func5_6
; 0003 0012     if (rpm_counter<=100){
	CALL SUBOPT_0x4
	CPI  R26,LOW(0x65)
	LDI  R30,HIGH(0x65)
	CPC  R27,R30
	BRGE _0x60004
; 0003 0013         if (direction == 1 ){
	LDS  R26,_direction
	LDS  R27,_direction+1
	SBIW R26,1
	BRNE _0x60005
; 0003 0014             if (temp_counter == 1) {
	CALL SUBOPT_0x5
	SBIW R26,1
	BRNE _0x60006
; 0003 0015                 PORTB.4 = 1;
	CALL SUBOPT_0x6
; 0003 0016                 PORTB.5 = 0;
; 0003 0017                 PORTB.6 = 0;
; 0003 0018                 PORTB.7 = 0;
; 0003 0019                 temp_counter ++ ;
; 0003 001A             }
; 0003 001B             if (temp_counter == 2) {
_0x60006:
	CALL SUBOPT_0x5
	SBIW R26,2
	BRNE _0x6000F
; 0003 001C                 PORTB.4 = 0;
	CALL SUBOPT_0x7
; 0003 001D                 PORTB.5 = 1;
; 0003 001E                 PORTB.6 = 0;
; 0003 001F                 PORTB.7 = 0;
; 0003 0020                 temp_counter ++ ;
; 0003 0021             }
; 0003 0022             if (temp_counter == 3) {
_0x6000F:
	CALL SUBOPT_0x5
	SBIW R26,3
	BRNE _0x60018
; 0003 0023                 PORTB.4 = 0;
	CALL SUBOPT_0x8
; 0003 0024                 PORTB.5 = 0;
; 0003 0025                 PORTB.6 = 1;
; 0003 0026                 PORTB.7 = 0;
; 0003 0027                 temp_counter ++ ;
; 0003 0028             }
; 0003 0029             if (temp_counter == 4) {
_0x60018:
	CALL SUBOPT_0x5
	SBIW R26,4
	BRNE _0x60021
; 0003 002A                 PORTB.4 = 0;
	CALL SUBOPT_0x9
; 0003 002B                 PORTB.5 = 0;
; 0003 002C                 PORTB.6 = 0;
; 0003 002D                 PORTB.7 = 1;
; 0003 002E                 temp_counter ++ ;
; 0003 002F             }
; 0003 0030 
; 0003 0031             if (temp_counter > 4){
_0x60021:
	CALL SUBOPT_0x5
	SBIW R26,5
	BRLT _0x6002A
; 0003 0032                 temp_counter=1;
	CALL SUBOPT_0xA
; 0003 0033             }
; 0003 0034         }
_0x6002A:
; 0003 0035         rpm_counter++;
_0x60005:
	CALL SUBOPT_0xB
; 0003 0036     }
; 0003 0037 
; 0003 0038 
; 0003 0039     if (rpm_counter==100){
_0x60004:
	CALL SUBOPT_0x4
	CPI  R26,LOW(0x64)
	LDI  R30,HIGH(0x64)
	CPC  R27,R30
	BRNE _0x6002B
; 0003 003A            PORTB.4 = 0;
	CBI  0x18,4
; 0003 003B            PORTB.5 = 0;
	CBI  0x18,5
; 0003 003C            PORTB.6 = 0;
	CBI  0x18,6
; 0003 003D            PORTB.7 = 0;
	CBI  0x18,7
; 0003 003E            direction=0;
	LDI  R30,LOW(0)
	STS  _direction,R30
	STS  _direction+1,R30
; 0003 003F            //delay_ms(50);
; 0003 0040            rpm_counter++;
	CALL SUBOPT_0xB
; 0003 0041     }
; 0003 0042 
; 0003 0043     if (rpm_counter >100 &&  rpm_counter<=200){
_0x6002B:
	CALL SUBOPT_0x4
	CPI  R26,LOW(0x65)
	LDI  R30,HIGH(0x65)
	CPC  R27,R30
	BRLT _0x60035
	CALL SUBOPT_0x4
	CPI  R26,LOW(0xC9)
	LDI  R30,HIGH(0xC9)
	CPC  R27,R30
	BRLT _0x60036
_0x60035:
	RJMP _0x60034
_0x60036:
; 0003 0044         if (direction == 0 ){
	LDS  R30,_direction
	LDS  R31,_direction+1
	SBIW R30,0
	BRNE _0x60037
; 0003 0045             if (temp_counter == 1) {
	CALL SUBOPT_0x5
	SBIW R26,1
	BRNE _0x60038
; 0003 0046                 PORTB.4 = 0;
	CALL SUBOPT_0x9
; 0003 0047                 PORTB.5 = 0;
; 0003 0048                 PORTB.6 = 0;
; 0003 0049                 PORTB.7 = 1;
; 0003 004A                 temp_counter ++ ;
; 0003 004B             }
; 0003 004C             if (temp_counter == 2) {
_0x60038:
	CALL SUBOPT_0x5
	SBIW R26,2
	BRNE _0x60041
; 0003 004D                 PORTB.4 = 0;
	CALL SUBOPT_0x8
; 0003 004E                 PORTB.5 = 0;
; 0003 004F                 PORTB.6 = 1;
; 0003 0050                 PORTB.7 = 0;
; 0003 0051                 temp_counter ++ ;
; 0003 0052             }
; 0003 0053             if (temp_counter == 3) {
_0x60041:
	CALL SUBOPT_0x5
	SBIW R26,3
	BRNE _0x6004A
; 0003 0054                 PORTB.4 = 0;
	CALL SUBOPT_0x7
; 0003 0055                 PORTB.5 = 1;
; 0003 0056                 PORTB.6 = 0;
; 0003 0057                 PORTB.7 = 0;
; 0003 0058                 temp_counter ++ ;
; 0003 0059             }
; 0003 005A             if (temp_counter == 4) {
_0x6004A:
	CALL SUBOPT_0x5
	SBIW R26,4
	BRNE _0x60053
; 0003 005B                 PORTB.4 = 1;
	CALL SUBOPT_0x6
; 0003 005C                 PORTB.5 = 0;
; 0003 005D                 PORTB.6 = 0;
; 0003 005E                 PORTB.7 = 0;
; 0003 005F                 temp_counter ++ ;
; 0003 0060             }
; 0003 0061 
; 0003 0062             if (temp_counter > 4){
_0x60053:
	CALL SUBOPT_0x5
	SBIW R26,5
	BRLT _0x6005C
; 0003 0063                 temp_counter=1;
	CALL SUBOPT_0xA
; 0003 0064             }
; 0003 0065 
; 0003 0066         }
_0x6005C:
; 0003 0067         rpm_counter++;
_0x60037:
	CALL SUBOPT_0xB
; 0003 0068     }
; 0003 0069 
; 0003 006A     if (rpm_counter>200){
_0x60034:
	CALL SUBOPT_0x4
	CPI  R26,LOW(0xC9)
	LDI  R30,HIGH(0xC9)
	CPC  R27,R30
	BRLT _0x6005D
; 0003 006B         rpm_counter=0;
	LDI  R30,LOW(0)
	STS  _rpm_counter,R30
	STS  _rpm_counter+1,R30
; 0003 006C         direction=1;
	LDI  R30,LOW(1)
	LDI  R31,HIGH(1)
	STS  _direction,R30
	STS  _direction+1,R31
; 0003 006D     }
; 0003 006E 
; 0003 006F     speed = 1/(0.01*4)*60;
_0x6005D:
	__GETD1N 0x5DC
	MOVW R10,R30
; 0003 0070     sprintf(temp_str, "%d", speed);
	LDI  R30,LOW(_temp_str)
	LDI  R31,HIGH(_temp_str)
	ST   -Y,R31
	ST   -Y,R30
	__POINTW1FN _0x60000,2
	ST   -Y,R31
	ST   -Y,R30
	MOVW R30,R10
	CALL __CWD1
	CALL __PUTPARD1
	LDI  R24,4
	CALL _sprintf
	ADIW R28,8
; 0003 0071     lcd_gotoxy(0, 0);
	LDI  R30,LOW(0)
	CALL SUBOPT_0x3
; 0003 0072     lcd_puts(temp_str);
	LDI  R26,LOW(_temp_str)
	LDI  R27,HIGH(_temp_str)
	RCALL _lcd_puts
; 0003 0073     lcd_gotoxy(6, 0);
	LDI  R30,LOW(6)
	CALL SUBOPT_0x3
; 0003 0074     lcd_puts("rpm");
	__POINTW2MN _0x6005E,0
_0x20C0004:
	RCALL _lcd_puts
; 0003 0075 }
	RET
; .FEND

	.DSEG
_0x6005E:
	.BYTE 0x4
;
;void init_timer_ports_6(void){
; 0003 0077 void init_timer_ports_6(void){

	.CSEG
_init_timer_ports_6:
; .FSTART _init_timer_ports_6
; 0003 0078 
; 0003 0079    DDRA=(0<<DDA7) | (0<<DDA6) | (0<<DDA5) | (0<<DDA4) | (0<<DDA3) | (0<<DDA2) | (0<<DDA1) | (0<<DDA0);
	LDI  R30,LOW(0)
	OUT  0x1A,R30
; 0003 007A     // State: Bit7=T Bit6=T Bit5=T Bit4=T Bit3=T Bit2=T Bit1=T Bit0=T
; 0003 007B     PORTA=(0<<PORTA7) | (0<<PORTA6) | (0<<PORTA5) | (0<<PORTA4) | (0<<PORTA3) | (0<<PORTA2) | (0<<PORTA1) | (0<<PORTA0);
	OUT  0x1B,R30
; 0003 007C 
; 0003 007D     // Port B initialization
; 0003 007E     // Function: Bit7=Out Bit6=Out Bit5=Out Bit4=Out Bit3=Out Bit2=Out Bit1=Out Bit0=Out
; 0003 007F     DDRB=(1<<DDB7) | (1<<DDB6) | (1<<DDB5) | (1<<DDB4) | (1<<DDB3) | (1<<DDB2) | (1<<DDB1) | (1<<DDB0);
	LDI  R30,LOW(255)
	OUT  0x17,R30
; 0003 0080     // State: Bit7=0 Bit6=0 Bit5=0 Bit4=0 Bit3=0 Bit2=0 Bit1=0 Bit0=0
; 0003 0081     PORTB=(0<<PORTB7) | (0<<PORTB6) | (0<<PORTB5) | (0<<PORTB4) | (0<<PORTB3) | (0<<PORTB2) | (0<<PORTB1) | (0<<PORTB0);
	LDI  R30,LOW(0)
	OUT  0x18,R30
; 0003 0082 
; 0003 0083     // Port C initialization
; 0003 0084     // Function: Bit7=Out Bit6=Out Bit5=Out Bit4=Out Bit3=Out Bit2=Out Bit1=Out Bit0=Out
; 0003 0085     DDRC=(1<<DDC7) | (1<<DDC6) | (1<<DDC5) | (1<<DDC4) | (1<<DDC3) | (1<<DDC2) | (1<<DDC1) | (1<<DDC0);
	LDI  R30,LOW(255)
	OUT  0x14,R30
; 0003 0086     // State: Bit7=0 Bit6=0 Bit5=0 Bit4=0 Bit3=0 Bit2=0 Bit1=0 Bit0=0
; 0003 0087     PORTC=(0<<PORTC7) | (0<<PORTC6) | (0<<PORTC5) | (0<<PORTC4) | (0<<PORTC3) | (0<<PORTC2) | (0<<PORTC1) | (0<<PORTC0);
	LDI  R30,LOW(0)
	OUT  0x15,R30
; 0003 0088 
; 0003 0089     // Port D initialization
; 0003 008A     // Function: Bit7=In Bit6=In Bit5=In Bit4=In Bit3=In Bit2=In Bit1=In Bit0=In
; 0003 008B     DDRD=(0<<DDD7) | (0<<DDD6) | (0<<DDD5) | (0<<DDD4) | (0<<DDD3) | (0<<DDD2) | (0<<DDD1) | (0<<DDD0);
	OUT  0x11,R30
; 0003 008C     // State: Bit7=T Bit6=T Bit5=T Bit4=T Bit3=T Bit2=T Bit1=T Bit0=T
; 0003 008D     PORTD=(0<<PORTD7) | (0<<PORTD6) | (0<<PORTD5) | (0<<PORTD4) | (0<<PORTD3) | (0<<PORTD2) | (0<<PORTD1) | (0<<PORTD0);
	OUT  0x12,R30
; 0003 008E 
; 0003 008F 
; 0003 0090 
; 0003 0091  TCCR0=(1<<WGM00) | (1<<COM01) | (0<<COM00) | (0<<WGM01) | (1<<CS02) | (0<<CS01) | (1<<CS00);
	LDI  R30,LOW(101)
	OUT  0x33,R30
; 0003 0092     TCNT0=0x00;
	LDI  R30,LOW(0)
	OUT  0x32,R30
; 0003 0093     OCR0=0x00;
	OUT  0x3C,R30
; 0003 0094 
; 0003 0095     // Timer/Counter 1 initialization
; 0003 0096     // Clock source: System Clock
; 0003 0097     // Clock value: Timer1 Stopped
; 0003 0098     // Mode: Normal top=0xFFFF
; 0003 0099     // OC1A output: Disconnected
; 0003 009A     // OC1B output: Disconnected
; 0003 009B     // Noise Canceler: Off
; 0003 009C     // Input Capture on Falling Edge
; 0003 009D     // Timer1 Overflow Interrupt: Off
; 0003 009E     // Input Capture Interrupt: Off
; 0003 009F     // Compare A Match Interrupt: Off
; 0003 00A0     // Compare B Match Interrupt: Off
; 0003 00A1     TCCR1A=(0<<COM1A1) | (0<<COM1A0) | (0<<COM1B1) | (0<<COM1B0) | (0<<WGM11) | (0<<WGM10);
	OUT  0x2F,R30
; 0003 00A2     TCCR1B=(0<<ICNC1) | (0<<ICES1) | (0<<WGM13) | (0<<WGM12) | (0<<CS12) | (0<<CS11) | (0<<CS10);
	OUT  0x2E,R30
; 0003 00A3     TCNT1H=0x00;
	OUT  0x2D,R30
; 0003 00A4     TCNT1L=0x00;
	OUT  0x2C,R30
; 0003 00A5     ICR1H=0x00;
	OUT  0x27,R30
; 0003 00A6     ICR1L=0x00;
	OUT  0x26,R30
; 0003 00A7     OCR1AH=0x00;
	OUT  0x2B,R30
; 0003 00A8     OCR1AL=0x00;
	OUT  0x2A,R30
; 0003 00A9     OCR1BH=0x00;
	OUT  0x29,R30
; 0003 00AA     OCR1BL=0x00;
	OUT  0x28,R30
; 0003 00AB 
; 0003 00AC     // Timer/Counter 2 initialization
; 0003 00AD     // Clock source: System Clock
; 0003 00AE     // Clock value: 7.813 kHz
; 0003 00AF     // Mode: Normal top=0xFF
; 0003 00B0     // OC2 output: Disconnected
; 0003 00B1     // Timer Period: 9.984 ms
; 0003 00B2     ASSR=0<<AS2;
	OUT  0x22,R30
; 0003 00B3     TCCR2=(0<<PWM2) | (0<<COM21) | (0<<COM20) | (0<<CTC2) | (1<<CS22) | (1<<CS21) | (1<<CS20);
	LDI  R30,LOW(7)
	OUT  0x25,R30
; 0003 00B4     TCNT2=0xB2;
	LDI  R30,LOW(178)
	OUT  0x24,R30
; 0003 00B5     OCR2=0x00;
	LDI  R30,LOW(0)
	OUT  0x23,R30
; 0003 00B6 
; 0003 00B7     // Timer(s)/Counter(s) Interrupt(s) initialization
; 0003 00B8     TIMSK=(0<<OCIE2) | (1<<TOIE2) | (0<<TICIE1) | (0<<OCIE1A) | (0<<OCIE1B) | (0<<TOIE1) | (0<<OCIE0) | (1<<TOIE0);
	LDI  R30,LOW(65)
	OUT  0x39,R30
; 0003 00B9 
; 0003 00BA     // External Interrupt(s) initialization
; 0003 00BB     // INT0: Off
; 0003 00BC     // INT1: Off
; 0003 00BD     // INT2: Off
; 0003 00BE     MCUCR=(0<<ISC11) | (0<<ISC10) | (0<<ISC01) | (0<<ISC00);
	LDI  R30,LOW(0)
	OUT  0x35,R30
; 0003 00BF     MCUCSR=(0<<ISC2);
	OUT  0x34,R30
; 0003 00C0 
; 0003 00C1     // USART initialization
; 0003 00C2     // USART disabled
; 0003 00C3     UCSRB=(0<<RXCIE) | (0<<TXCIE) | (0<<UDRIE) | (0<<RXEN) | (0<<TXEN) | (0<<UCSZ2) | (0<<RXB8) | (0<<TXB8);
	OUT  0xA,R30
; 0003 00C4 
; 0003 00C5     // Analog Comparator initialization
; 0003 00C6     // Analog Comparator: Off
; 0003 00C7     // The Analog Comparator's positive input is
; 0003 00C8     // connected to the AIN0 pin
; 0003 00C9     // The Analog Comparator's negative input is
; 0003 00CA     // connected to the AIN1 pin
; 0003 00CB     ACSR=(1<<ACD) | (0<<ACBG) | (0<<ACO) | (0<<ACI) | (0<<ACIE) | (0<<ACIC) | (0<<ACIS1) | (0<<ACIS0);
	LDI  R30,LOW(128)
	OUT  0x8,R30
; 0003 00CC     SFIOR=(0<<ACME);
	LDI  R30,LOW(0)
	OUT  0x30,R30
; 0003 00CD 
; 0003 00CE     // ADC initialization
; 0003 00CF     // ADC disabled
; 0003 00D0     ADCSRA=(0<<ADEN) | (0<<ADSC) | (0<<ADATE) | (0<<ADIF) | (0<<ADIE) | (0<<ADPS2) | (0<<ADPS1) | (0<<ADPS0);
	OUT  0x6,R30
; 0003 00D1 
; 0003 00D2     // SPI initialization
; 0003 00D3     // SPI disabled
; 0003 00D4     SPCR=(0<<SPIE) | (0<<SPE) | (0<<DORD) | (0<<MSTR) | (0<<CPOL) | (0<<CPHA) | (0<<SPR1) | (0<<SPR0);
	OUT  0xD,R30
; 0003 00D5 
; 0003 00D6     // TWI initialization
; 0003 00D7     // TWI disabled
; 0003 00D8     TWCR=(0<<TWEA) | (0<<TWSTA) | (0<<TWSTO) | (0<<TWEN) | (0<<TWIE);
	OUT  0x36,R30
; 0003 00D9 
; 0003 00DA 
; 0003 00DB 
; 0003 00DC 
; 0003 00DD }
	RET
; .FEND
	#ifndef __SLEEP_DEFINED__
	#define __SLEEP_DEFINED__
	.EQU __se_bit=0x40
	.EQU __sm_mask=0xB0
	.EQU __sm_powerdown=0x20
	.EQU __sm_powersave=0x30
	.EQU __sm_standby=0xA0
	.EQU __sm_ext_standby=0xB0
	.EQU __sm_adc_noise_red=0x10
	.SET power_ctrl_reg=mcucr
	#endif

	.DSEG

	.CSEG
__lcd_write_nibble_G100:
; .FSTART __lcd_write_nibble_G100
	ST   -Y,R26
	IN   R30,0x15
	ANDI R30,LOW(0xF)
	MOV  R26,R30
	LD   R30,Y
	ANDI R30,LOW(0xF0)
	OR   R30,R26
	OUT  0x15,R30
	__DELAY_USB 13
	SBI  0x15,2
	__DELAY_USB 13
	CBI  0x15,2
	__DELAY_USB 13
	RJMP _0x20C0003
; .FEND
__lcd_write_data:
; .FSTART __lcd_write_data
	ST   -Y,R26
	LD   R26,Y
	RCALL __lcd_write_nibble_G100
    ld    r30,y
    swap  r30
    st    y,r30
	LD   R26,Y
	RCALL __lcd_write_nibble_G100
	__DELAY_USB 133
	RJMP _0x20C0003
; .FEND
_lcd_gotoxy:
; .FSTART _lcd_gotoxy
	ST   -Y,R26
	LD   R30,Y
	LDI  R31,0
	SUBI R30,LOW(-__base_y_G100)
	SBCI R31,HIGH(-__base_y_G100)
	LD   R30,Z
	LDD  R26,Y+1
	ADD  R26,R30
	RCALL __lcd_write_data
	LDD  R30,Y+1
	STS  __lcd_x,R30
	LD   R30,Y
	STS  __lcd_y,R30
	ADIW R28,2
	RET
; .FEND
_lcd_clear:
; .FSTART _lcd_clear
	LDI  R26,LOW(2)
	CALL SUBOPT_0xC
	LDI  R26,LOW(12)
	RCALL __lcd_write_data
	LDI  R26,LOW(1)
	CALL SUBOPT_0xC
	LDI  R30,LOW(0)
	STS  __lcd_y,R30
	STS  __lcd_x,R30
	RET
; .FEND
_lcd_putchar:
; .FSTART _lcd_putchar
	ST   -Y,R26
	LD   R26,Y
	CPI  R26,LOW(0xA)
	BREQ _0x2000005
	LDS  R30,__lcd_maxx
	LDS  R26,__lcd_x
	CP   R26,R30
	BRLO _0x2000004
_0x2000005:
	LDI  R30,LOW(0)
	ST   -Y,R30
	LDS  R26,__lcd_y
	SUBI R26,-LOW(1)
	STS  __lcd_y,R26
	RCALL _lcd_gotoxy
	LD   R26,Y
	CPI  R26,LOW(0xA)
	BRNE _0x2000007
	RJMP _0x20C0003
_0x2000007:
_0x2000004:
	LDS  R30,__lcd_x
	SUBI R30,-LOW(1)
	STS  __lcd_x,R30
	SBI  0x15,0
	LD   R26,Y
	RCALL __lcd_write_data
	CBI  0x15,0
	RJMP _0x20C0003
; .FEND
_lcd_puts:
; .FSTART _lcd_puts
	ST   -Y,R27
	ST   -Y,R26
	ST   -Y,R17
_0x2000008:
	LDD  R26,Y+1
	LDD  R27,Y+1+1
	LD   R30,X+
	STD  Y+1,R26
	STD  Y+1+1,R27
	MOV  R17,R30
	CPI  R30,0
	BREQ _0x200000A
	MOV  R26,R17
	RCALL _lcd_putchar
	RJMP _0x2000008
_0x200000A:
	LDD  R17,Y+0
	ADIW R28,3
	RET
; .FEND
_lcd_init:
; .FSTART _lcd_init
	ST   -Y,R26
	IN   R30,0x14
	ORI  R30,LOW(0xF0)
	OUT  0x14,R30
	SBI  0x14,2
	SBI  0x14,0
	SBI  0x14,1
	CBI  0x15,2
	CBI  0x15,0
	CBI  0x15,1
	LD   R30,Y
	STS  __lcd_maxx,R30
	SUBI R30,-LOW(128)
	__PUTB1MN __base_y_G100,2
	LD   R30,Y
	SUBI R30,-LOW(192)
	__PUTB1MN __base_y_G100,3
	LDI  R26,LOW(20)
	LDI  R27,0
	CALL _delay_ms
	CALL SUBOPT_0xD
	CALL SUBOPT_0xD
	CALL SUBOPT_0xD
	LDI  R26,LOW(32)
	RCALL __lcd_write_nibble_G100
	__DELAY_USW 200
	LDI  R26,LOW(40)
	RCALL __lcd_write_data
	LDI  R26,LOW(4)
	RCALL __lcd_write_data
	LDI  R26,LOW(133)
	RCALL __lcd_write_data
	LDI  R26,LOW(6)
	RCALL __lcd_write_data
	RCALL _lcd_clear
_0x20C0003:
	ADIW R28,1
	RET
; .FEND
	#ifndef __SLEEP_DEFINED__
	#define __SLEEP_DEFINED__
	.EQU __se_bit=0x40
	.EQU __sm_mask=0xB0
	.EQU __sm_powerdown=0x20
	.EQU __sm_powersave=0x30
	.EQU __sm_standby=0xA0
	.EQU __sm_ext_standby=0xB0
	.EQU __sm_adc_noise_red=0x10
	.SET power_ctrl_reg=mcucr
	#endif

	.CSEG
_put_buff_G101:
; .FSTART _put_buff_G101
	ST   -Y,R27
	ST   -Y,R26
	ST   -Y,R17
	ST   -Y,R16
	LDD  R26,Y+2
	LDD  R27,Y+2+1
	ADIW R26,2
	CALL __GETW1P
	SBIW R30,0
	BREQ _0x2020010
	LDD  R26,Y+2
	LDD  R27,Y+2+1
	ADIW R26,4
	CALL __GETW1P
	MOVW R16,R30
	SBIW R30,0
	BREQ _0x2020012
	__CPWRN 16,17,2
	BRLO _0x2020013
	MOVW R30,R16
	SBIW R30,1
	MOVW R16,R30
	__PUTW1SNS 2,4
_0x2020012:
	LDD  R26,Y+2
	LDD  R27,Y+2+1
	ADIW R26,2
	LD   R30,X+
	LD   R31,X+
	ADIW R30,1
	ST   -X,R31
	ST   -X,R30
	SBIW R30,1
	LDD  R26,Y+4
	STD  Z+0,R26
_0x2020013:
	LDD  R26,Y+2
	LDD  R27,Y+2+1
	CALL __GETW1P
	TST  R31
	BRMI _0x2020014
	LD   R30,X+
	LD   R31,X+
	ADIW R30,1
	ST   -X,R31
	ST   -X,R30
_0x2020014:
	RJMP _0x2020015
_0x2020010:
	LDD  R26,Y+2
	LDD  R27,Y+2+1
	LDI  R30,LOW(65535)
	LDI  R31,HIGH(65535)
	ST   X+,R30
	ST   X,R31
_0x2020015:
	LDD  R17,Y+1
	LDD  R16,Y+0
	ADIW R28,5
	RET
; .FEND
__print_G101:
; .FSTART __print_G101
	ST   -Y,R27
	ST   -Y,R26
	SBIW R28,6
	CALL __SAVELOCR6
	LDI  R17,0
	LDD  R26,Y+12
	LDD  R27,Y+12+1
	LDI  R30,LOW(0)
	LDI  R31,HIGH(0)
	ST   X+,R30
	ST   X,R31
_0x2020016:
	LDD  R30,Y+18
	LDD  R31,Y+18+1
	ADIW R30,1
	STD  Y+18,R30
	STD  Y+18+1,R31
	SBIW R30,1
	LPM  R30,Z
	MOV  R18,R30
	CPI  R30,0
	BRNE PC+2
	RJMP _0x2020018
	MOV  R30,R17
	CPI  R30,0
	BRNE _0x202001C
	CPI  R18,37
	BRNE _0x202001D
	LDI  R17,LOW(1)
	RJMP _0x202001E
_0x202001D:
	CALL SUBOPT_0xE
_0x202001E:
	RJMP _0x202001B
_0x202001C:
	CPI  R30,LOW(0x1)
	BRNE _0x202001F
	CPI  R18,37
	BRNE _0x2020020
	CALL SUBOPT_0xE
	RJMP _0x20200CC
_0x2020020:
	LDI  R17,LOW(2)
	LDI  R20,LOW(0)
	LDI  R16,LOW(0)
	CPI  R18,45
	BRNE _0x2020021
	LDI  R16,LOW(1)
	RJMP _0x202001B
_0x2020021:
	CPI  R18,43
	BRNE _0x2020022
	LDI  R20,LOW(43)
	RJMP _0x202001B
_0x2020022:
	CPI  R18,32
	BRNE _0x2020023
	LDI  R20,LOW(32)
	RJMP _0x202001B
_0x2020023:
	RJMP _0x2020024
_0x202001F:
	CPI  R30,LOW(0x2)
	BRNE _0x2020025
_0x2020024:
	LDI  R21,LOW(0)
	LDI  R17,LOW(3)
	CPI  R18,48
	BRNE _0x2020026
	ORI  R16,LOW(128)
	RJMP _0x202001B
_0x2020026:
	RJMP _0x2020027
_0x2020025:
	CPI  R30,LOW(0x3)
	BREQ PC+2
	RJMP _0x202001B
_0x2020027:
	CPI  R18,48
	BRLO _0x202002A
	CPI  R18,58
	BRLO _0x202002B
_0x202002A:
	RJMP _0x2020029
_0x202002B:
	LDI  R26,LOW(10)
	MUL  R21,R26
	MOV  R21,R0
	MOV  R30,R18
	SUBI R30,LOW(48)
	ADD  R21,R30
	RJMP _0x202001B
_0x2020029:
	MOV  R30,R18
	CPI  R30,LOW(0x63)
	BRNE _0x202002F
	CALL SUBOPT_0xF
	LDD  R30,Y+16
	LDD  R31,Y+16+1
	LDD  R26,Z+4
	ST   -Y,R26
	CALL SUBOPT_0x10
	RJMP _0x2020030
_0x202002F:
	CPI  R30,LOW(0x73)
	BRNE _0x2020032
	CALL SUBOPT_0xF
	CALL SUBOPT_0x11
	CALL _strlen
	MOV  R17,R30
	RJMP _0x2020033
_0x2020032:
	CPI  R30,LOW(0x70)
	BRNE _0x2020035
	CALL SUBOPT_0xF
	CALL SUBOPT_0x11
	CALL _strlenf
	MOV  R17,R30
	ORI  R16,LOW(8)
_0x2020033:
	ORI  R16,LOW(2)
	ANDI R16,LOW(127)
	LDI  R19,LOW(0)
	RJMP _0x2020036
_0x2020035:
	CPI  R30,LOW(0x64)
	BREQ _0x2020039
	CPI  R30,LOW(0x69)
	BRNE _0x202003A
_0x2020039:
	ORI  R16,LOW(4)
	RJMP _0x202003B
_0x202003A:
	CPI  R30,LOW(0x75)
	BRNE _0x202003C
_0x202003B:
	LDI  R30,LOW(_tbl10_G101*2)
	LDI  R31,HIGH(_tbl10_G101*2)
	STD  Y+6,R30
	STD  Y+6+1,R31
	LDI  R17,LOW(5)
	RJMP _0x202003D
_0x202003C:
	CPI  R30,LOW(0x58)
	BRNE _0x202003F
	ORI  R16,LOW(8)
	RJMP _0x2020040
_0x202003F:
	CPI  R30,LOW(0x78)
	BREQ PC+2
	RJMP _0x2020071
_0x2020040:
	LDI  R30,LOW(_tbl16_G101*2)
	LDI  R31,HIGH(_tbl16_G101*2)
	STD  Y+6,R30
	STD  Y+6+1,R31
	LDI  R17,LOW(4)
_0x202003D:
	SBRS R16,2
	RJMP _0x2020042
	CALL SUBOPT_0xF
	CALL SUBOPT_0x12
	LDD  R26,Y+11
	TST  R26
	BRPL _0x2020043
	LDD  R30,Y+10
	LDD  R31,Y+10+1
	CALL __ANEGW1
	STD  Y+10,R30
	STD  Y+10+1,R31
	LDI  R20,LOW(45)
_0x2020043:
	CPI  R20,0
	BREQ _0x2020044
	SUBI R17,-LOW(1)
	RJMP _0x2020045
_0x2020044:
	ANDI R16,LOW(251)
_0x2020045:
	RJMP _0x2020046
_0x2020042:
	CALL SUBOPT_0xF
	CALL SUBOPT_0x12
_0x2020046:
_0x2020036:
	SBRC R16,0
	RJMP _0x2020047
_0x2020048:
	CP   R17,R21
	BRSH _0x202004A
	SBRS R16,7
	RJMP _0x202004B
	SBRS R16,2
	RJMP _0x202004C
	ANDI R16,LOW(251)
	MOV  R18,R20
	SUBI R17,LOW(1)
	RJMP _0x202004D
_0x202004C:
	LDI  R18,LOW(48)
_0x202004D:
	RJMP _0x202004E
_0x202004B:
	LDI  R18,LOW(32)
_0x202004E:
	CALL SUBOPT_0xE
	SUBI R21,LOW(1)
	RJMP _0x2020048
_0x202004A:
_0x2020047:
	MOV  R19,R17
	SBRS R16,1
	RJMP _0x202004F
_0x2020050:
	CPI  R19,0
	BREQ _0x2020052
	SBRS R16,3
	RJMP _0x2020053
	LDD  R30,Y+6
	LDD  R31,Y+6+1
	LPM  R18,Z+
	STD  Y+6,R30
	STD  Y+6+1,R31
	RJMP _0x2020054
_0x2020053:
	LDD  R26,Y+6
	LDD  R27,Y+6+1
	LD   R18,X+
	STD  Y+6,R26
	STD  Y+6+1,R27
_0x2020054:
	CALL SUBOPT_0xE
	CPI  R21,0
	BREQ _0x2020055
	SUBI R21,LOW(1)
_0x2020055:
	SUBI R19,LOW(1)
	RJMP _0x2020050
_0x2020052:
	RJMP _0x2020056
_0x202004F:
_0x2020058:
	LDI  R18,LOW(48)
	LDD  R30,Y+6
	LDD  R31,Y+6+1
	CALL __GETW1PF
	STD  Y+8,R30
	STD  Y+8+1,R31
	LDD  R30,Y+6
	LDD  R31,Y+6+1
	ADIW R30,2
	STD  Y+6,R30
	STD  Y+6+1,R31
_0x202005A:
	LDD  R30,Y+8
	LDD  R31,Y+8+1
	LDD  R26,Y+10
	LDD  R27,Y+10+1
	CP   R26,R30
	CPC  R27,R31
	BRLO _0x202005C
	SUBI R18,-LOW(1)
	LDD  R26,Y+8
	LDD  R27,Y+8+1
	LDD  R30,Y+10
	LDD  R31,Y+10+1
	SUB  R30,R26
	SBC  R31,R27
	STD  Y+10,R30
	STD  Y+10+1,R31
	RJMP _0x202005A
_0x202005C:
	CPI  R18,58
	BRLO _0x202005D
	SBRS R16,3
	RJMP _0x202005E
	SUBI R18,-LOW(7)
	RJMP _0x202005F
_0x202005E:
	SUBI R18,-LOW(39)
_0x202005F:
_0x202005D:
	SBRC R16,4
	RJMP _0x2020061
	CPI  R18,49
	BRSH _0x2020063
	LDD  R26,Y+8
	LDD  R27,Y+8+1
	SBIW R26,1
	BRNE _0x2020062
_0x2020063:
	RJMP _0x20200CD
_0x2020062:
	CP   R21,R19
	BRLO _0x2020067
	SBRS R16,0
	RJMP _0x2020068
_0x2020067:
	RJMP _0x2020066
_0x2020068:
	LDI  R18,LOW(32)
	SBRS R16,7
	RJMP _0x2020069
	LDI  R18,LOW(48)
_0x20200CD:
	ORI  R16,LOW(16)
	SBRS R16,2
	RJMP _0x202006A
	ANDI R16,LOW(251)
	ST   -Y,R20
	CALL SUBOPT_0x10
	CPI  R21,0
	BREQ _0x202006B
	SUBI R21,LOW(1)
_0x202006B:
_0x202006A:
_0x2020069:
_0x2020061:
	CALL SUBOPT_0xE
	CPI  R21,0
	BREQ _0x202006C
	SUBI R21,LOW(1)
_0x202006C:
_0x2020066:
	SUBI R19,LOW(1)
	LDD  R26,Y+8
	LDD  R27,Y+8+1
	SBIW R26,2
	BRLO _0x2020059
	RJMP _0x2020058
_0x2020059:
_0x2020056:
	SBRS R16,0
	RJMP _0x202006D
_0x202006E:
	CPI  R21,0
	BREQ _0x2020070
	SUBI R21,LOW(1)
	LDI  R30,LOW(32)
	ST   -Y,R30
	CALL SUBOPT_0x10
	RJMP _0x202006E
_0x2020070:
_0x202006D:
_0x2020071:
_0x2020030:
_0x20200CC:
	LDI  R17,LOW(0)
_0x202001B:
	RJMP _0x2020016
_0x2020018:
	LDD  R26,Y+12
	LDD  R27,Y+12+1
	CALL __GETW1P
	CALL __LOADLOCR6
	ADIW R28,20
	RET
; .FEND
_sprintf:
; .FSTART _sprintf
	PUSH R15
	MOV  R15,R24
	SBIW R28,6
	CALL __SAVELOCR4
	CALL SUBOPT_0x13
	SBIW R30,0
	BRNE _0x2020072
	LDI  R30,LOW(65535)
	LDI  R31,HIGH(65535)
	RJMP _0x20C0002
_0x2020072:
	MOVW R26,R28
	ADIW R26,6
	CALL __ADDW2R15
	MOVW R16,R26
	CALL SUBOPT_0x13
	STD  Y+6,R30
	STD  Y+6+1,R31
	LDI  R30,LOW(0)
	STD  Y+8,R30
	STD  Y+8+1,R30
	MOVW R26,R28
	ADIW R26,10
	CALL __ADDW2R15
	CALL __GETW1P
	ST   -Y,R31
	ST   -Y,R30
	ST   -Y,R17
	ST   -Y,R16
	LDI  R30,LOW(_put_buff_G101)
	LDI  R31,HIGH(_put_buff_G101)
	ST   -Y,R31
	ST   -Y,R30
	MOVW R26,R28
	ADIW R26,10
	RCALL __print_G101
	MOVW R18,R30
	LDD  R26,Y+6
	LDD  R27,Y+6+1
	LDI  R30,LOW(0)
	ST   X,R30
	MOVW R30,R18
_0x20C0002:
	CALL __LOADLOCR4
	ADIW R28,10
	POP  R15
	RET
; .FEND

	.CSEG
_ftrunc:
; .FSTART _ftrunc
	CALL __PUTPARD2
   ldd  r23,y+3
   ldd  r22,y+2
   ldd  r31,y+1
   ld   r30,y
   bst  r23,7
   lsl  r23
   sbrc r22,7
   sbr  r23,1
   mov  r25,r23
   subi r25,0x7e
   breq __ftrunc0
   brcs __ftrunc0
   cpi  r25,24
   brsh __ftrunc1
   clr  r26
   clr  r27
   clr  r24
__ftrunc2:
   sec
   ror  r24
   ror  r27
   ror  r26
   dec  r25
   brne __ftrunc2
   and  r30,r26
   and  r31,r27
   and  r22,r24
   rjmp __ftrunc1
__ftrunc0:
   clt
   clr  r23
   clr  r30
   clr  r31
   clr  r22
__ftrunc1:
   cbr  r22,0x80
   lsr  r23
   brcc __ftrunc3
   sbr  r22,0x80
__ftrunc3:
   bld  r23,7
   ld   r26,y+
   ld   r27,y+
   ld   r24,y+
   ld   r25,y+
   cp   r30,r26
   cpc  r31,r27
   cpc  r22,r24
   cpc  r23,r25
   bst  r25,7
   ret
; .FEND
_floor:
; .FSTART _floor
	CALL __PUTPARD2
	CALL __GETD2S0
	CALL _ftrunc
	CALL __PUTD1S0
    brne __floor1
__floor0:
	CALL __GETD1S0
	RJMP _0x20C0001
__floor1:
    brtc __floor0
	CALL __GETD1S0
	__GETD2N 0x3F800000
	CALL __SUBF12
_0x20C0001:
	ADIW R28,4
	RET
; .FEND

	.CSEG

	.CSEG
_strlen:
; .FSTART _strlen
	ST   -Y,R27
	ST   -Y,R26
    ld   r26,y+
    ld   r27,y+
    clr  r30
    clr  r31
strlen0:
    ld   r22,x+
    tst  r22
    breq strlen1
    adiw r30,1
    rjmp strlen0
strlen1:
    ret
; .FEND
_strlenf:
; .FSTART _strlenf
	ST   -Y,R27
	ST   -Y,R26
    clr  r26
    clr  r27
    ld   r30,y+
    ld   r31,y+
strlenf0:
	lpm  r0,z+
    tst  r0
    breq strlenf1
    adiw r26,1
    rjmp strlenf0
strlenf1:
    movw r30,r26
    ret
; .FEND

	.CSEG

	.DSEG

	.CSEG

	.DSEG
_lcd_str:
	.BYTE 0x10
_temp_counter:
	.BYTE 0x2
_rpm_counter:
	.BYTE 0x2
_direction:
	.BYTE 0x2
_temp_str:
	.BYTE 0x11
__base_y_G100:
	.BYTE 0x4
__lcd_x:
	.BYTE 0x1
__lcd_y:
	.BYTE 0x1
__lcd_maxx:
	.BYTE 0x1
__seed_G105:
	.BYTE 0x4

	.CSEG
;OPTIMIZER ADDED SUBROUTINE, CALLED 2 TIMES, CODE SIZE REDUCTION:8 WORDS
SUBOPT_0x0:
	ST   -Y,R0
	ST   -Y,R1
	ST   -Y,R15
	ST   -Y,R22
	ST   -Y,R23
	ST   -Y,R24
	ST   -Y,R25
	ST   -Y,R26
	ST   -Y,R27
	ST   -Y,R30
	ST   -Y,R31
	IN   R30,SREG
	ST   -Y,R30
	RET

;OPTIMIZER ADDED SUBROUTINE, CALLED 2 TIMES, CODE SIZE REDUCTION:5 WORDS
SUBOPT_0x1:
	LDI  R26,LOW(90)
	LDI  R27,HIGH(90)
	CALL __MULW12
	MOVW R26,R30
	LDI  R30,LOW(255)
	LDI  R31,HIGH(255)
	CALL __DIVW21
	ADIW R30,5
	RET

;OPTIMIZER ADDED SUBROUTINE, CALLED 2 TIMES, CODE SIZE REDUCTION:14 WORDS
SUBOPT_0x2:
	LDI  R26,LOW(255)
	LDI  R27,HIGH(255)
	CALL __MULW12
	MOVW R26,R30
	LDI  R30,LOW(100)
	LDI  R31,HIGH(100)
	CALL __DIVW21
	CALL __CWD1
	CALL __CDF1
	MOVW R26,R30
	MOVW R24,R22
	CALL _floor
	CALL __CFD1
	RET

;OPTIMIZER ADDED SUBROUTINE, CALLED 3 TIMES, CODE SIZE REDUCTION:1 WORDS
SUBOPT_0x3:
	ST   -Y,R30
	LDI  R26,LOW(0)
	JMP  _lcd_gotoxy

;OPTIMIZER ADDED SUBROUTINE, CALLED 5 TIMES, CODE SIZE REDUCTION:5 WORDS
SUBOPT_0x4:
	LDS  R26,_rpm_counter
	LDS  R27,_rpm_counter+1
	RET

;OPTIMIZER ADDED SUBROUTINE, CALLED 10 TIMES, CODE SIZE REDUCTION:15 WORDS
SUBOPT_0x5:
	LDS  R26,_temp_counter
	LDS  R27,_temp_counter+1
	RET

;OPTIMIZER ADDED SUBROUTINE, CALLED 2 TIMES, CODE SIZE REDUCTION:6 WORDS
SUBOPT_0x6:
	SBI  0x18,4
	CBI  0x18,5
	CBI  0x18,6
	CBI  0x18,7
	LDI  R26,LOW(_temp_counter)
	LDI  R27,HIGH(_temp_counter)
	LD   R30,X+
	LD   R31,X+
	ADIW R30,1
	ST   -X,R31
	ST   -X,R30
	RET

;OPTIMIZER ADDED SUBROUTINE, CALLED 2 TIMES, CODE SIZE REDUCTION:6 WORDS
SUBOPT_0x7:
	CBI  0x18,4
	SBI  0x18,5
	CBI  0x18,6
	CBI  0x18,7
	LDI  R26,LOW(_temp_counter)
	LDI  R27,HIGH(_temp_counter)
	LD   R30,X+
	LD   R31,X+
	ADIW R30,1
	ST   -X,R31
	ST   -X,R30
	RET

;OPTIMIZER ADDED SUBROUTINE, CALLED 2 TIMES, CODE SIZE REDUCTION:6 WORDS
SUBOPT_0x8:
	CBI  0x18,4
	CBI  0x18,5
	SBI  0x18,6
	CBI  0x18,7
	LDI  R26,LOW(_temp_counter)
	LDI  R27,HIGH(_temp_counter)
	LD   R30,X+
	LD   R31,X+
	ADIW R30,1
	ST   -X,R31
	ST   -X,R30
	RET

;OPTIMIZER ADDED SUBROUTINE, CALLED 2 TIMES, CODE SIZE REDUCTION:6 WORDS
SUBOPT_0x9:
	CBI  0x18,4
	CBI  0x18,5
	CBI  0x18,6
	SBI  0x18,7
	LDI  R26,LOW(_temp_counter)
	LDI  R27,HIGH(_temp_counter)
	LD   R30,X+
	LD   R31,X+
	ADIW R30,1
	ST   -X,R31
	ST   -X,R30
	RET

;OPTIMIZER ADDED SUBROUTINE, CALLED 2 TIMES, CODE SIZE REDUCTION:1 WORDS
SUBOPT_0xA:
	LDI  R30,LOW(1)
	LDI  R31,HIGH(1)
	STS  _temp_counter,R30
	STS  _temp_counter+1,R31
	RET

;OPTIMIZER ADDED SUBROUTINE, CALLED 3 TIMES, CODE SIZE REDUCTION:7 WORDS
SUBOPT_0xB:
	LDI  R26,LOW(_rpm_counter)
	LDI  R27,HIGH(_rpm_counter)
	LD   R30,X+
	LD   R31,X+
	ADIW R30,1
	ST   -X,R31
	ST   -X,R30
	RET

;OPTIMIZER ADDED SUBROUTINE, CALLED 2 TIMES, CODE SIZE REDUCTION:1 WORDS
SUBOPT_0xC:
	CALL __lcd_write_data
	LDI  R26,LOW(3)
	LDI  R27,0
	JMP  _delay_ms

;OPTIMIZER ADDED SUBROUTINE, CALLED 3 TIMES, CODE SIZE REDUCTION:7 WORDS
SUBOPT_0xD:
	LDI  R26,LOW(48)
	CALL __lcd_write_nibble_G100
	__DELAY_USW 200
	RET

;OPTIMIZER ADDED SUBROUTINE, CALLED 5 TIMES, CODE SIZE REDUCTION:13 WORDS
SUBOPT_0xE:
	ST   -Y,R18
	LDD  R26,Y+13
	LDD  R27,Y+13+1
	LDD  R30,Y+15
	LDD  R31,Y+15+1
	ICALL
	RET

;OPTIMIZER ADDED SUBROUTINE, CALLED 5 TIMES, CODE SIZE REDUCTION:9 WORDS
SUBOPT_0xF:
	LDD  R30,Y+16
	LDD  R31,Y+16+1
	SBIW R30,4
	STD  Y+16,R30
	STD  Y+16+1,R31
	RET

;OPTIMIZER ADDED SUBROUTINE, CALLED 3 TIMES, CODE SIZE REDUCTION:3 WORDS
SUBOPT_0x10:
	LDD  R26,Y+13
	LDD  R27,Y+13+1
	LDD  R30,Y+15
	LDD  R31,Y+15+1
	ICALL
	RET

;OPTIMIZER ADDED SUBROUTINE, CALLED 2 TIMES, CODE SIZE REDUCTION:4 WORDS
SUBOPT_0x11:
	LDD  R26,Y+16
	LDD  R27,Y+16+1
	ADIW R26,4
	CALL __GETW1P
	STD  Y+6,R30
	STD  Y+6+1,R31
	LDD  R26,Y+6
	LDD  R27,Y+6+1
	RET

;OPTIMIZER ADDED SUBROUTINE, CALLED 2 TIMES, CODE SIZE REDUCTION:2 WORDS
SUBOPT_0x12:
	LDD  R26,Y+16
	LDD  R27,Y+16+1
	ADIW R26,4
	CALL __GETW1P
	STD  Y+10,R30
	STD  Y+10+1,R31
	RET

;OPTIMIZER ADDED SUBROUTINE, CALLED 2 TIMES, CODE SIZE REDUCTION:1 WORDS
SUBOPT_0x13:
	MOVW R26,R28
	ADIW R26,12
	CALL __ADDW2R15
	CALL __GETW1P
	RET


	.CSEG
_delay_ms:
	adiw r26,0
	breq __delay_ms1
__delay_ms0:
	__DELAY_USW 0x7D0
	wdr
	sbiw r26,1
	brne __delay_ms0
__delay_ms1:
	ret

__REPACK:
	LDI  R21,0x80
	EOR  R21,R23
	BRNE __REPACK0
	PUSH R21
	RJMP __ZERORES
__REPACK0:
	CPI  R21,0xFF
	BREQ __REPACK1
	LSL  R22
	LSL  R0
	ROR  R21
	ROR  R22
	MOV  R23,R21
	RET
__REPACK1:
	PUSH R21
	TST  R0
	BRMI __REPACK2
	RJMP __MAXRES
__REPACK2:
	RJMP __MINRES

__UNPACK:
	LDI  R21,0x80
	MOV  R1,R25
	AND  R1,R21
	LSL  R24
	ROL  R25
	EOR  R25,R21
	LSL  R21
	ROR  R24

__UNPACK1:
	LDI  R21,0x80
	MOV  R0,R23
	AND  R0,R21
	LSL  R22
	ROL  R23
	EOR  R23,R21
	LSL  R21
	ROR  R22
	RET

__CFD1U:
	SET
	RJMP __CFD1U0
__CFD1:
	CLT
__CFD1U0:
	PUSH R21
	RCALL __UNPACK1
	CPI  R23,0x80
	BRLO __CFD10
	CPI  R23,0xFF
	BRCC __CFD10
	RJMP __ZERORES
__CFD10:
	LDI  R21,22
	SUB  R21,R23
	BRPL __CFD11
	NEG  R21
	CPI  R21,8
	BRTC __CFD19
	CPI  R21,9
__CFD19:
	BRLO __CFD17
	SER  R30
	SER  R31
	SER  R22
	LDI  R23,0x7F
	BLD  R23,7
	RJMP __CFD15
__CFD17:
	CLR  R23
	TST  R21
	BREQ __CFD15
__CFD18:
	LSL  R30
	ROL  R31
	ROL  R22
	ROL  R23
	DEC  R21
	BRNE __CFD18
	RJMP __CFD15
__CFD11:
	CLR  R23
__CFD12:
	CPI  R21,8
	BRLO __CFD13
	MOV  R30,R31
	MOV  R31,R22
	MOV  R22,R23
	SUBI R21,8
	RJMP __CFD12
__CFD13:
	TST  R21
	BREQ __CFD15
__CFD14:
	LSR  R23
	ROR  R22
	ROR  R31
	ROR  R30
	DEC  R21
	BRNE __CFD14
__CFD15:
	TST  R0
	BRPL __CFD16
	RCALL __ANEGD1
__CFD16:
	POP  R21
	RET

__CDF1U:
	SET
	RJMP __CDF1U0
__CDF1:
	CLT
__CDF1U0:
	SBIW R30,0
	SBCI R22,0
	SBCI R23,0
	BREQ __CDF10
	CLR  R0
	BRTS __CDF11
	TST  R23
	BRPL __CDF11
	COM  R0
	RCALL __ANEGD1
__CDF11:
	MOV  R1,R23
	LDI  R23,30
	TST  R1
__CDF12:
	BRMI __CDF13
	DEC  R23
	LSL  R30
	ROL  R31
	ROL  R22
	ROL  R1
	RJMP __CDF12
__CDF13:
	MOV  R30,R31
	MOV  R31,R22
	MOV  R22,R1
	PUSH R21
	RCALL __REPACK
	POP  R21
__CDF10:
	RET

__SWAPACC:
	PUSH R20
	MOVW R20,R30
	MOVW R30,R26
	MOVW R26,R20
	MOVW R20,R22
	MOVW R22,R24
	MOVW R24,R20
	MOV  R20,R0
	MOV  R0,R1
	MOV  R1,R20
	POP  R20
	RET

__UADD12:
	ADD  R30,R26
	ADC  R31,R27
	ADC  R22,R24
	RET

__NEGMAN1:
	COM  R30
	COM  R31
	COM  R22
	SUBI R30,-1
	SBCI R31,-1
	SBCI R22,-1
	RET

__SUBF12:
	PUSH R21
	RCALL __UNPACK
	CPI  R25,0x80
	BREQ __ADDF129
	LDI  R21,0x80
	EOR  R1,R21

__ADDF120:
	CPI  R23,0x80
	BREQ __ADDF128
__ADDF121:
	MOV  R21,R23
	SUB  R21,R25
	BRVS __ADDF1211
	BRPL __ADDF122
	RCALL __SWAPACC
	RJMP __ADDF121
__ADDF122:
	CPI  R21,24
	BRLO __ADDF123
	CLR  R26
	CLR  R27
	CLR  R24
__ADDF123:
	CPI  R21,8
	BRLO __ADDF124
	MOV  R26,R27
	MOV  R27,R24
	CLR  R24
	SUBI R21,8
	RJMP __ADDF123
__ADDF124:
	TST  R21
	BREQ __ADDF126
__ADDF125:
	LSR  R24
	ROR  R27
	ROR  R26
	DEC  R21
	BRNE __ADDF125
__ADDF126:
	MOV  R21,R0
	EOR  R21,R1
	BRMI __ADDF127
	RCALL __UADD12
	BRCC __ADDF129
	ROR  R22
	ROR  R31
	ROR  R30
	INC  R23
	BRVC __ADDF129
	RJMP __MAXRES
__ADDF128:
	RCALL __SWAPACC
__ADDF129:
	RCALL __REPACK
	POP  R21
	RET
__ADDF1211:
	BRCC __ADDF128
	RJMP __ADDF129
__ADDF127:
	SUB  R30,R26
	SBC  R31,R27
	SBC  R22,R24
	BREQ __ZERORES
	BRCC __ADDF1210
	COM  R0
	RCALL __NEGMAN1
__ADDF1210:
	TST  R22
	BRMI __ADDF129
	LSL  R30
	ROL  R31
	ROL  R22
	DEC  R23
	BRVC __ADDF1210

__ZERORES:
	CLR  R30
	CLR  R31
	CLR  R22
	CLR  R23
	POP  R21
	RET

__MINRES:
	SER  R30
	SER  R31
	LDI  R22,0x7F
	SER  R23
	POP  R21
	RET

__MAXRES:
	SER  R30
	SER  R31
	LDI  R22,0x7F
	LDI  R23,0x7F
	POP  R21
	RET

__ADDW2R15:
	CLR  R0
	ADD  R26,R15
	ADC  R27,R0
	RET

__ANEGW1:
	NEG  R31
	NEG  R30
	SBCI R31,0
	RET

__ANEGD1:
	COM  R31
	COM  R22
	COM  R23
	NEG  R30
	SBCI R31,-1
	SBCI R22,-1
	SBCI R23,-1
	RET

__CWD1:
	MOV  R22,R31
	ADD  R22,R22
	SBC  R22,R22
	MOV  R23,R22
	RET

__MULW12U:
	MUL  R31,R26
	MOV  R31,R0
	MUL  R30,R27
	ADD  R31,R0
	MUL  R30,R26
	MOV  R30,R0
	ADD  R31,R1
	RET

__MULW12:
	RCALL __CHKSIGNW
	RCALL __MULW12U
	BRTC __MULW121
	RCALL __ANEGW1
__MULW121:
	RET

__DIVW21U:
	CLR  R0
	CLR  R1
	LDI  R25,16
__DIVW21U1:
	LSL  R26
	ROL  R27
	ROL  R0
	ROL  R1
	SUB  R0,R30
	SBC  R1,R31
	BRCC __DIVW21U2
	ADD  R0,R30
	ADC  R1,R31
	RJMP __DIVW21U3
__DIVW21U2:
	SBR  R26,1
__DIVW21U3:
	DEC  R25
	BRNE __DIVW21U1
	MOVW R30,R26
	MOVW R26,R0
	RET

__DIVW21:
	RCALL __CHKSIGNW
	RCALL __DIVW21U
	BRTC __DIVW211
	RCALL __ANEGW1
__DIVW211:
	RET

__CHKSIGNW:
	CLT
	SBRS R31,7
	RJMP __CHKSW1
	RCALL __ANEGW1
	SET
__CHKSW1:
	SBRS R27,7
	RJMP __CHKSW2
	COM  R26
	COM  R27
	ADIW R26,1
	BLD  R0,0
	INC  R0
	BST  R0,0
__CHKSW2:
	RET

__GETW1P:
	LD   R30,X+
	LD   R31,X
	SBIW R26,1
	RET

__GETW1PF:
	LPM  R0,Z+
	LPM  R31,Z
	MOV  R30,R0
	RET

__GETD1S0:
	LD   R30,Y
	LDD  R31,Y+1
	LDD  R22,Y+2
	LDD  R23,Y+3
	RET

__GETD2S0:
	LD   R26,Y
	LDD  R27,Y+1
	LDD  R24,Y+2
	LDD  R25,Y+3
	RET

__PUTD1S0:
	ST   Y,R30
	STD  Y+1,R31
	STD  Y+2,R22
	STD  Y+3,R23
	RET

__PUTPARD1:
	ST   -Y,R23
	ST   -Y,R22
	ST   -Y,R31
	ST   -Y,R30
	RET

__PUTPARD2:
	ST   -Y,R25
	ST   -Y,R24
	ST   -Y,R27
	ST   -Y,R26
	RET

__SAVELOCR6:
	ST   -Y,R21
__SAVELOCR5:
	ST   -Y,R20
__SAVELOCR4:
	ST   -Y,R19
__SAVELOCR3:
	ST   -Y,R18
__SAVELOCR2:
	ST   -Y,R17
	ST   -Y,R16
	RET

__LOADLOCR6:
	LDD  R21,Y+5
__LOADLOCR5:
	LDD  R20,Y+4
__LOADLOCR4:
	LDD  R19,Y+3
__LOADLOCR3:
	LDD  R18,Y+2
__LOADLOCR2:
	LDD  R17,Y+1
	LD   R16,Y
	RET

;END OF CODE MARKER
__END_OF_CODE:
